
a.out:     file format elf64-x86-64


Disassembly of section .init:

000000000000d400 <_init>:
    d400:	48 83 ec 08          	sub    $0x8,%rsp
    d404:	48 8b 05 dd db 20 00 	mov    0x20dbdd(%rip),%rax        # 21afe8 <__gmon_start__>
    d40b:	48 85 c0             	test   %rax,%rax
    d40e:	74 02                	je     d412 <_init+0x12>
    d410:	ff d0                	callq  *%rax
    d412:	48 83 c4 08          	add    $0x8,%rsp
    d416:	c3                   	retq   

Disassembly of section .plt:

000000000000d420 <.plt>:
    d420:	ff 35 4a d9 20 00    	pushq  0x20d94a(%rip)        # 21ad70 <_GLOBAL_OFFSET_TABLE_+0x8>
    d426:	ff 25 4c d9 20 00    	jmpq   *0x20d94c(%rip)        # 21ad78 <_GLOBAL_OFFSET_TABLE_+0x10>
    d42c:	0f 1f 40 00          	nopl   0x0(%rax)

000000000000d430 <printf@plt>:
    d430:	ff 25 4a d9 20 00    	jmpq   *0x20d94a(%rip)        # 21ad80 <printf@GLIBC_2.2.5>
    d436:	68 00 00 00 00       	pushq  $0x0
    d43b:	e9 e0 ff ff ff       	jmpq   d420 <.plt>

000000000000d440 <_ZNSt7__cxx1112basic_stringIcSt11char_traitsIcESaIcEE6appendEPKcm@plt>:
    d440:	ff 25 42 d9 20 00    	jmpq   *0x20d942(%rip)        # 21ad88 <_ZNSt7__cxx1112basic_stringIcSt11char_traitsIcESaIcEE6appendEPKcm@GLIBCXX_3.4.21>
    d446:	68 01 00 00 00       	pushq  $0x1
    d44b:	e9 d0 ff ff ff       	jmpq   d420 <.plt>

000000000000d450 <_ZN17ElectionCommision10showStatesEv@plt>:
    d450:	ff 25 3a d9 20 00    	jmpq   *0x20d93a(%rip)        # 21ad90 <_ZN17ElectionCommision10showStatesEv>
    d456:	68 02 00 00 00       	pushq  $0x2
    d45b:	e9 c0 ff ff ff       	jmpq   d420 <.plt>

000000000000d460 <sqlite3_column_int@plt>:
    d460:	ff 25 32 d9 20 00    	jmpq   *0x20d932(%rip)        # 21ad98 <sqlite3_column_int>
    d466:	68 03 00 00 00       	pushq  $0x3
    d46b:	e9 b0 ff ff ff       	jmpq   d420 <.plt>

000000000000d470 <_ZSt29_Rb_tree_insert_and_rebalancebPSt18_Rb_tree_node_baseS0_RS_@plt>:
    d470:	ff 25 2a d9 20 00    	jmpq   *0x20d92a(%rip)        # 21ada0 <_ZSt29_Rb_tree_insert_and_rebalancebPSt18_Rb_tree_node_baseS0_RS_@GLIBCXX_3.4>
    d476:	68 04 00 00 00       	pushq  $0x4
    d47b:	e9 a0 ff ff ff       	jmpq   d420 <.plt>

000000000000d480 <_ZN9Candidate10getStateIdEv@plt>:
    d480:	ff 25 22 d9 20 00    	jmpq   *0x20d922(%rip)        # 21ada8 <_ZN9Candidate10getStateIdEv>
    d486:	68 05 00 00 00       	pushq  $0x5
    d48b:	e9 90 ff ff ff       	jmpq   d420 <.plt>

000000000000d490 <_ZNSolsEm@plt>:
    d490:	ff 25 1a d9 20 00    	jmpq   *0x20d91a(%rip)        # 21adb0 <_ZNSolsEm@GLIBCXX_3.4>
    d496:	68 06 00 00 00       	pushq  $0x6
    d49b:	e9 80 ff ff ff       	jmpq   d420 <.plt>

000000000000d4a0 <_ZSt9terminatev@plt>:
    d4a0:	ff 25 12 d9 20 00    	jmpq   *0x20d912(%rip)        # 21adb8 <_ZSt9terminatev@GLIBCXX_3.4>
    d4a6:	68 07 00 00 00       	pushq  $0x7
    d4ab:	e9 70 ff ff ff       	jmpq   d420 <.plt>

000000000000d4b0 <_ZN17ElectionCommision16registerNewVoterEv@plt>:
    d4b0:	ff 25 0a d9 20 00    	jmpq   *0x20d90a(%rip)        # 21adc0 <_ZN17ElectionCommision16registerNewVoterEv>
    d4b6:	68 08 00 00 00       	pushq  $0x8
    d4bb:	e9 60 ff ff ff       	jmpq   d420 <.plt>

000000000000d4c0 <_ZSt17__throw_bad_allocv@plt>:
    d4c0:	ff 25 02 d9 20 00    	jmpq   *0x20d902(%rip)        # 21adc8 <_ZSt17__throw_bad_allocv@GLIBCXX_3.4>
    d4c6:	68 09 00 00 00       	pushq  $0x9
    d4cb:	e9 50 ff ff ff       	jmpq   d420 <.plt>

000000000000d4d0 <__cxa_begin_catch@plt>:
    d4d0:	ff 25 fa d8 20 00    	jmpq   *0x20d8fa(%rip)        # 21add0 <__cxa_begin_catch@CXXABI_1.3>
    d4d6:	68 0a 00 00 00       	pushq  $0xa
    d4db:	e9 40 ff ff ff       	jmpq   d420 <.plt>

000000000000d4e0 <_ZN5Voter4voteEv@plt>:
    d4e0:	ff 25 f2 d8 20 00    	jmpq   *0x20d8f2(%rip)        # 21add8 <_ZN5Voter4voteEv>
    d4e6:	68 0b 00 00 00       	pushq  $0xb
    d4eb:	e9 30 ff ff ff       	jmpq   d420 <.plt>

000000000000d4f0 <_ZNKSt7__cxx1112basic_stringIcSt11char_traitsIcESaIcEE5c_strEv@plt>:
    d4f0:	ff 25 ea d8 20 00    	jmpq   *0x20d8ea(%rip)        # 21ade0 <_ZNKSt7__cxx1112basic_stringIcSt11char_traitsIcESaIcEE5c_strEv@GLIBCXX_3.4.21>
    d4f6:	68 0c 00 00 00       	pushq  $0xc
    d4fb:	e9 20 ff ff ff       	jmpq   d420 <.plt>

000000000000d500 <_ZNSt7__cxx1112basic_stringIcSt11char_traitsIcESaIcEEC1ERKS4_@plt>:
    d500:	ff 25 e2 d8 20 00    	jmpq   *0x20d8e2(%rip)        # 21ade8 <_ZNSt7__cxx1112basic_stringIcSt11char_traitsIcESaIcEEC1ERKS4_@GLIBCXX_3.4.21>
    d506:	68 0d 00 00 00       	pushq  $0xd
    d50b:	e9 10 ff ff ff       	jmpq   d420 <.plt>

000000000000d510 <_ZNSt6thread6_StateD2Ev@plt>:
    d510:	ff 25 da d8 20 00    	jmpq   *0x20d8da(%rip)        # 21adf0 <_ZNSt6thread6_StateD2Ev@GLIBCXX_3.4.22>
    d516:	68 0e 00 00 00       	pushq  $0xe
    d51b:	e9 00 ff ff ff       	jmpq   d420 <.plt>

000000000000d520 <_ZNSt7__cxx1112basic_stringIcSt11char_traitsIcESaIcEEC1EOS4_@plt>:
    d520:	ff 25 d2 d8 20 00    	jmpq   *0x20d8d2(%rip)        # 21adf8 <_ZNSt7__cxx1112basic_stringIcSt11char_traitsIcESaIcEEC1EOS4_@GLIBCXX_3.4.21>
    d526:	68 0f 00 00 00       	pushq  $0xf
    d52b:	e9 f0 fe ff ff       	jmpq   d420 <.plt>

000000000000d530 <_ZNSirsERi@plt>:
    d530:	ff 25 ca d8 20 00    	jmpq   *0x20d8ca(%rip)        # 21ae00 <_ZNSirsERi@GLIBCXX_3.4>
    d536:	68 10 00 00 00       	pushq  $0x10
    d53b:	e9 e0 fe ff ff       	jmpq   d420 <.plt>

000000000000d540 <_ZNSt7__cxx1112basic_stringIcSt11char_traitsIcESaIcEED1Ev@plt>:
    d540:	ff 25 c2 d8 20 00    	jmpq   *0x20d8c2(%rip)        # 21ae08 <_ZNSt7__cxx1112basic_stringIcSt11char_traitsIcESaIcEED1Ev@GLIBCXX_3.4.21>
    d546:	68 11 00 00 00       	pushq  $0x11
    d54b:	e9 d0 fe ff ff       	jmpq   d420 <.plt>

000000000000d550 <_ZN9Candidate13getElectionIdEv@plt>:
    d550:	ff 25 ba d8 20 00    	jmpq   *0x20d8ba(%rip)        # 21ae10 <_ZN9Candidate13getElectionIdEv>
    d556:	68 12 00 00 00       	pushq  $0x12
    d55b:	e9 c0 fe ff ff       	jmpq   d420 <.plt>

000000000000d560 <_ZSt18_Rb_tree_incrementPSt18_Rb_tree_node_base@plt>:
    d560:	ff 25 b2 d8 20 00    	jmpq   *0x20d8b2(%rip)        # 21ae18 <_ZSt18_Rb_tree_incrementPSt18_Rb_tree_node_base@GLIBCXX_3.4>
    d566:	68 13 00 00 00       	pushq  $0x13
    d56b:	e9 b0 fe ff ff       	jmpq   d420 <.plt>

000000000000d570 <_ZNKSt7__cxx1112basic_stringIcSt11char_traitsIcESaIcEE4sizeEv@plt>:
    d570:	ff 25 aa d8 20 00    	jmpq   *0x20d8aa(%rip)        # 21ae20 <_ZNKSt7__cxx1112basic_stringIcSt11char_traitsIcESaIcEE4sizeEv@GLIBCXX_3.4.21>
    d576:	68 14 00 00 00       	pushq  $0x14
    d57b:	e9 a0 fe ff ff       	jmpq   d420 <.plt>

000000000000d580 <_ZNSt7__cxx1118basic_stringstreamIcSt11char_traitsIcESaIcEED1Ev@plt>:
    d580:	ff 25 a2 d8 20 00    	jmpq   *0x20d8a2(%rip)        # 21ae28 <_ZNSt7__cxx1118basic_stringstreamIcSt11char_traitsIcESaIcEED1Ev@GLIBCXX_3.4.21>
    d586:	68 15 00 00 00       	pushq  $0x15
    d58b:	e9 90 fe ff ff       	jmpq   d420 <.plt>

000000000000d590 <_ZNSt7__cxx1118basic_stringstreamIcSt11char_traitsIcESaIcEEC1ESt13_Ios_Openmode@plt>:
    d590:	ff 25 9a d8 20 00    	jmpq   *0x20d89a(%rip)        # 21ae30 <_ZNSt7__cxx1118basic_stringstreamIcSt11char_traitsIcESaIcEEC1ESt13_Ios_Openmode@GLIBCXX_3.4.21>
    d596:	68 16 00 00 00       	pushq  $0x16
    d59b:	e9 80 fe ff ff       	jmpq   d420 <.plt>

000000000000d5a0 <_ZN9Candidate13getAssemblyIdEv@plt>:
    d5a0:	ff 25 92 d8 20 00    	jmpq   *0x20d892(%rip)        # 21ae38 <_ZN9Candidate13getAssemblyIdEv>
    d5a6:	68 17 00 00 00       	pushq  $0x17
    d5ab:	e9 70 fe ff ff       	jmpq   d420 <.plt>

000000000000d5b0 <sqlite3_column_text@plt>:
    d5b0:	ff 25 8a d8 20 00    	jmpq   *0x20d88a(%rip)        # 21ae40 <sqlite3_column_text>
    d5b6:	68 18 00 00 00       	pushq  $0x18
    d5bb:	e9 60 fe ff ff       	jmpq   d420 <.plt>

000000000000d5c0 <_ZN9Candidate14getCandidateIdEv@plt>:
    d5c0:	ff 25 82 d8 20 00    	jmpq   *0x20d882(%rip)        # 21ae48 <_ZN9Candidate14getCandidateIdEv>
    d5c6:	68 19 00 00 00       	pushq  $0x19
    d5cb:	e9 50 fe ff ff       	jmpq   d420 <.plt>

000000000000d5d0 <__cxa_atexit@plt>:
    d5d0:	ff 25 7a d8 20 00    	jmpq   *0x20d87a(%rip)        # 21ae50 <__cxa_atexit@GLIBC_2.2.5>
    d5d6:	68 1a 00 00 00       	pushq  $0x1a
    d5db:	e9 40 fe ff ff       	jmpq   d420 <.plt>

000000000000d5e0 <_ZStlsIcSt11char_traitsIcESaIcEERSt13basic_ostreamIT_T0_ES7_RKNSt7__cxx1112basic_stringIS4_S5_T1_EE@plt>:
    d5e0:	ff 25 72 d8 20 00    	jmpq   *0x20d872(%rip)        # 21ae58 <_ZStlsIcSt11char_traitsIcESaIcEERSt13basic_ostreamIT_T0_ES7_RKNSt7__cxx1112basic_stringIS4_S5_T1_EE@GLIBCXX_3.4.21>
    d5e6:	68 1b 00 00 00       	pushq  $0x1b
    d5eb:	e9 30 fe ff ff       	jmpq   d420 <.plt>

000000000000d5f0 <pthread_self@plt>:
    d5f0:	ff 25 6a d8 20 00    	jmpq   *0x20d86a(%rip)        # 21ae60 <pthread_self@GLIBC_2.2.5>
    d5f6:	68 1c 00 00 00       	pushq  $0x1c
    d5fb:	e9 20 fe ff ff       	jmpq   d420 <.plt>

000000000000d600 <_ZNSt6thread15_M_start_threadESt10unique_ptrINS_6_StateESt14default_deleteIS1_EEPFvvE@plt>:
    d600:	ff 25 62 d8 20 00    	jmpq   *0x20d862(%rip)        # 21ae68 <_ZNSt6thread15_M_start_threadESt10unique_ptrINS_6_StateESt14default_deleteIS1_EEPFvvE@GLIBCXX_3.4.22>
    d606:	68 1d 00 00 00       	pushq  $0x1d
    d60b:	e9 10 fe ff ff       	jmpq   d420 <.plt>

000000000000d610 <_ZN8Assembly16getCandidateListEv@plt>:
    d610:	ff 25 5a d8 20 00    	jmpq   *0x20d85a(%rip)        # 21ae70 <_ZN8Assembly16getCandidateListEv>
    d616:	68 1e 00 00 00       	pushq  $0x1e
    d61b:	e9 00 fe ff ff       	jmpq   d420 <.plt>

000000000000d620 <_ZdlPv@plt>:
    d620:	ff 25 52 d8 20 00    	jmpq   *0x20d852(%rip)        # 21ae78 <_ZdlPv@GLIBCXX_3.4>
    d626:	68 1f 00 00 00       	pushq  $0x1f
    d62b:	e9 f0 fd ff ff       	jmpq   d420 <.plt>

000000000000d630 <sqlite3_prepare_v2@plt>:
    d630:	ff 25 4a d8 20 00    	jmpq   *0x20d84a(%rip)        # 21ae80 <sqlite3_prepare_v2>
    d636:	68 20 00 00 00       	pushq  $0x20
    d63b:	e9 e0 fd ff ff       	jmpq   d420 <.plt>

000000000000d640 <sqlite3_errmsg@plt>:
    d640:	ff 25 42 d8 20 00    	jmpq   *0x20d842(%rip)        # 21ae88 <sqlite3_errmsg>
    d646:	68 21 00 00 00       	pushq  $0x21
    d64b:	e9 d0 fd ff ff       	jmpq   d420 <.plt>

000000000000d650 <_ZNKSt7__cxx1118basic_stringstreamIcSt11char_traitsIcESaIcEE3strEv@plt>:
    d650:	ff 25 3a d8 20 00    	jmpq   *0x20d83a(%rip)        # 21ae90 <_ZNKSt7__cxx1118basic_stringstreamIcSt11char_traitsIcESaIcEE3strEv@GLIBCXX_3.4.21>
    d656:	68 22 00 00 00       	pushq  $0x22
    d65b:	e9 c0 fd ff ff       	jmpq   d420 <.plt>

000000000000d660 <_ZStlsISt11char_traitsIcEERSt13basic_ostreamIcT_ES5_PKc@plt>:
    d660:	ff 25 32 d8 20 00    	jmpq   *0x20d832(%rip)        # 21ae98 <_ZStlsISt11char_traitsIcEERSt13basic_ostreamIcT_ES5_PKc@GLIBCXX_3.4>
    d666:	68 23 00 00 00       	pushq  $0x23
    d66b:	e9 b0 fd ff ff       	jmpq   d420 <.plt>

000000000000d670 <_Znwm@plt>:
    d670:	ff 25 2a d8 20 00    	jmpq   *0x20d82a(%rip)        # 21aea0 <_Znwm@GLIBCXX_3.4>
    d676:	68 24 00 00 00       	pushq  $0x24
    d67b:	e9 a0 fd ff ff       	jmpq   d420 <.plt>

000000000000d680 <_ZdlPvm@plt>:
    d680:	ff 25 22 d8 20 00    	jmpq   *0x20d822(%rip)        # 21aea8 <_ZdlPvm@CXXABI_1.3.9>
    d686:	68 25 00 00 00       	pushq  $0x25
    d68b:	e9 90 fd ff ff       	jmpq   d420 <.plt>

000000000000d690 <_ZN17ElectionCommisionC1Ev@plt>:
    d690:	ff 25 1a d8 20 00    	jmpq   *0x20d81a(%rip)        # 21aeb0 <_ZN17ElectionCommisionC1Ev>
    d696:	68 26 00 00 00       	pushq  $0x26
    d69b:	e9 80 fd ff ff       	jmpq   d420 <.plt>

000000000000d6a0 <_ZSt18_Rb_tree_decrementPSt18_Rb_tree_node_base@plt>:
    d6a0:	ff 25 12 d8 20 00    	jmpq   *0x20d812(%rip)        # 21aeb8 <_ZSt18_Rb_tree_decrementPSt18_Rb_tree_node_base@GLIBCXX_3.4>
    d6a6:	68 27 00 00 00       	pushq  $0x27
    d6ab:	e9 70 fd ff ff       	jmpq   d420 <.plt>

000000000000d6b0 <_ZNSolsEPFRSoS_E@plt>:
    d6b0:	ff 25 0a d8 20 00    	jmpq   *0x20d80a(%rip)        # 21aec0 <_ZNSolsEPFRSoS_E@GLIBCXX_3.4>
    d6b6:	68 28 00 00 00       	pushq  $0x28
    d6bb:	e9 60 fd ff ff       	jmpq   d420 <.plt>

000000000000d6c0 <_ZNSaIcED1Ev@plt>:
    d6c0:	ff 25 02 d8 20 00    	jmpq   *0x20d802(%rip)        # 21aec8 <_ZNSaIcED1Ev@GLIBCXX_3.4>
    d6c6:	68 29 00 00 00       	pushq  $0x29
    d6cb:	e9 50 fd ff ff       	jmpq   d420 <.plt>

000000000000d6d0 <_ZN8Assembly12getVoterListEv@plt>:
    d6d0:	ff 25 fa d7 20 00    	jmpq   *0x20d7fa(%rip)        # 21aed0 <_ZN8Assembly12getVoterListEv>
    d6d6:	68 2a 00 00 00       	pushq  $0x2a
    d6db:	e9 40 fd ff ff       	jmpq   d420 <.plt>

000000000000d6e0 <__stack_chk_fail@plt>:
    d6e0:	ff 25 f2 d7 20 00    	jmpq   *0x20d7f2(%rip)        # 21aed8 <__stack_chk_fail@GLIBC_2.4>
    d6e6:	68 2b 00 00 00       	pushq  $0x2b
    d6eb:	e9 30 fd ff ff       	jmpq   d420 <.plt>

000000000000d6f0 <_ZN17ElectionCommision14createElectionEv@plt>:
    d6f0:	ff 25 ea d7 20 00    	jmpq   *0x20d7ea(%rip)        # 21aee0 <_ZN17ElectionCommision14createElectionEv>
    d6f6:	68 2c 00 00 00       	pushq  $0x2c
    d6fb:	e9 20 fd ff ff       	jmpq   d420 <.plt>

000000000000d700 <_ZNSt7__cxx1112basic_stringIcSt11char_traitsIcESaIcEEaSEOS4_@plt>:
    d700:	ff 25 e2 d7 20 00    	jmpq   *0x20d7e2(%rip)        # 21aee8 <_ZNSt7__cxx1112basic_stringIcSt11char_traitsIcESaIcEEaSEOS4_@GLIBCXX_3.4.21>
    d706:	68 2d 00 00 00       	pushq  $0x2d
    d70b:	e9 10 fd ff ff       	jmpq   d420 <.plt>

000000000000d710 <_ZStrsIcSt11char_traitsIcESaIcEERSt13basic_istreamIT_T0_ES7_RNSt7__cxx1112basic_stringIS4_S5_T1_EE@plt>:
    d710:	ff 25 da d7 20 00    	jmpq   *0x20d7da(%rip)        # 21aef0 <_ZStrsIcSt11char_traitsIcESaIcEERSt13basic_istreamIT_T0_ES7_RNSt7__cxx1112basic_stringIS4_S5_T1_EE@GLIBCXX_3.4.21>
    d716:	68 2e 00 00 00       	pushq  $0x2e
    d71b:	e9 00 fd ff ff       	jmpq   d420 <.plt>

000000000000d720 <_ZStrsIcSt11char_traitsIcEERSt13basic_istreamIT_T0_ES6_RS3_@plt>:
    d720:	ff 25 d2 d7 20 00    	jmpq   *0x20d7d2(%rip)        # 21aef8 <_ZStrsIcSt11char_traitsIcEERSt13basic_istreamIT_T0_ES6_RS3_@GLIBCXX_3.4>
    d726:	68 2f 00 00 00       	pushq  $0x2f
    d72b:	e9 f0 fc ff ff       	jmpq   d420 <.plt>

000000000000d730 <_ZNSt7__cxx1112basic_stringIcSt11char_traitsIcESaIcEEaSEPKc@plt>:
    d730:	ff 25 ca d7 20 00    	jmpq   *0x20d7ca(%rip)        # 21af00 <_ZNSt7__cxx1112basic_stringIcSt11char_traitsIcESaIcEEaSEPKc@GLIBCXX_3.4.21>
    d736:	68 30 00 00 00       	pushq  $0x30
    d73b:	e9 e0 fc ff ff       	jmpq   d420 <.plt>

000000000000d740 <_ZNSt7__cxx1112basic_stringIcSt11char_traitsIcESaIcEEC1EPKcRKS3_@plt>:
    d740:	ff 25 c2 d7 20 00    	jmpq   *0x20d7c2(%rip)        # 21af08 <_ZNSt7__cxx1112basic_stringIcSt11char_traitsIcESaIcEEC1EPKcRKS3_@GLIBCXX_3.4.21>
    d746:	68 31 00 00 00       	pushq  $0x31
    d74b:	e9 d0 fc ff ff       	jmpq   d420 <.plt>

000000000000d750 <_ZNSt7__cxx1112basic_stringIcSt11char_traitsIcESaIcEEC1Ev@plt>:
    d750:	ff 25 ba d7 20 00    	jmpq   *0x20d7ba(%rip)        # 21af10 <_ZNSt7__cxx1112basic_stringIcSt11char_traitsIcESaIcEEC1Ev@GLIBCXX_3.4.21>
    d756:	68 32 00 00 00       	pushq  $0x32
    d75b:	e9 c0 fc ff ff       	jmpq   d420 <.plt>

000000000000d760 <sqlite3_step@plt>:
    d760:	ff 25 b2 d7 20 00    	jmpq   *0x20d7b2(%rip)        # 21af18 <sqlite3_step>
    d766:	68 33 00 00 00       	pushq  $0x33
    d76b:	e9 b0 fc ff ff       	jmpq   d420 <.plt>

000000000000d770 <putchar@plt>:
    d770:	ff 25 aa d7 20 00    	jmpq   *0x20d7aa(%rip)        # 21af20 <putchar@GLIBC_2.2.5>
    d776:	68 34 00 00 00       	pushq  $0x34
    d77b:	e9 a0 fc ff ff       	jmpq   d420 <.plt>

000000000000d780 <fprintf@plt>:
    d780:	ff 25 a2 d7 20 00    	jmpq   *0x20d7a2(%rip)        # 21af28 <fprintf@GLIBC_2.2.5>
    d786:	68 35 00 00 00       	pushq  $0x35
    d78b:	e9 90 fc ff ff       	jmpq   d420 <.plt>

000000000000d790 <__cxa_rethrow@plt>:
    d790:	ff 25 9a d7 20 00    	jmpq   *0x20d79a(%rip)        # 21af30 <__cxa_rethrow@CXXABI_1.3>
    d796:	68 36 00 00 00       	pushq  $0x36
    d79b:	e9 80 fc ff ff       	jmpq   d420 <.plt>

000000000000d7a0 <_ZNSt8ios_base4InitC1Ev@plt>:
    d7a0:	ff 25 92 d7 20 00    	jmpq   *0x20d792(%rip)        # 21af38 <_ZNSt8ios_base4InitC1Ev@GLIBCXX_3.4>
    d7a6:	68 37 00 00 00       	pushq  $0x37
    d7ab:	e9 70 fc ff ff       	jmpq   d420 <.plt>

000000000000d7b0 <_ZNSt7__cxx1112basic_stringIcSt11char_traitsIcESaIcEE7reserveEm@plt>:
    d7b0:	ff 25 8a d7 20 00    	jmpq   *0x20d78a(%rip)        # 21af40 <_ZNSt7__cxx1112basic_stringIcSt11char_traitsIcESaIcEE7reserveEm@GLIBCXX_3.4.21>
    d7b6:	68 38 00 00 00       	pushq  $0x38
    d7bb:	e9 60 fc ff ff       	jmpq   d420 <.plt>

000000000000d7c0 <_ZN5Voter19registerAsCandidateEv@plt>:
    d7c0:	ff 25 82 d7 20 00    	jmpq   *0x20d782(%rip)        # 21af48 <_ZN5Voter19registerAsCandidateEv>
    d7c6:	68 39 00 00 00       	pushq  $0x39
    d7cb:	e9 50 fc ff ff       	jmpq   d420 <.plt>

000000000000d7d0 <__cxa_end_catch@plt>:
    d7d0:	ff 25 7a d7 20 00    	jmpq   *0x20d77a(%rip)        # 21af50 <__cxa_end_catch@CXXABI_1.3>
    d7d6:	68 3a 00 00 00       	pushq  $0x3a
    d7db:	e9 40 fc ff ff       	jmpq   d420 <.plt>

000000000000d7e0 <sqlite3_finalize@plt>:
    d7e0:	ff 25 72 d7 20 00    	jmpq   *0x20d772(%rip)        # 21af58 <sqlite3_finalize>
    d7e6:	68 3b 00 00 00       	pushq  $0x3b
    d7eb:	e9 30 fc ff ff       	jmpq   d420 <.plt>

000000000000d7f0 <_ZN17ElectionCommision26showOngoingElectionDetailsEv@plt>:
    d7f0:	ff 25 6a d7 20 00    	jmpq   *0x20d76a(%rip)        # 21af60 <_ZN17ElectionCommision26showOngoingElectionDetailsEv>
    d7f6:	68 3c 00 00 00       	pushq  $0x3c
    d7fb:	e9 20 fc ff ff       	jmpq   d420 <.plt>

000000000000d800 <_ZNSt6thread4joinEv@plt>:
    d800:	ff 25 62 d7 20 00    	jmpq   *0x20d762(%rip)        # 21af68 <_ZNSt6thread4joinEv@GLIBCXX_3.4.11>
    d806:	68 3d 00 00 00       	pushq  $0x3d
    d80b:	e9 10 fc ff ff       	jmpq   d420 <.plt>

000000000000d810 <_ZNSolsEi@plt>:
    d810:	ff 25 5a d7 20 00    	jmpq   *0x20d75a(%rip)        # 21af70 <_ZNSolsEi@GLIBCXX_3.4>
    d816:	68 3e 00 00 00       	pushq  $0x3e
    d81b:	e9 00 fc ff ff       	jmpq   d420 <.plt>

000000000000d820 <sqlite3_open@plt>:
    d820:	ff 25 52 d7 20 00    	jmpq   *0x20d752(%rip)        # 21af78 <sqlite3_open>
    d826:	68 3f 00 00 00       	pushq  $0x3f
    d82b:	e9 f0 fb ff ff       	jmpq   d420 <.plt>

000000000000d830 <_Unwind_Resume@plt>:
    d830:	ff 25 4a d7 20 00    	jmpq   *0x20d74a(%rip)        # 21af80 <_Unwind_Resume@GCC_3.0>
    d836:	68 40 00 00 00       	pushq  $0x40
    d83b:	e9 e0 fb ff ff       	jmpq   d420 <.plt>

000000000000d840 <_ZNSaIcEC1Ev@plt>:
    d840:	ff 25 42 d7 20 00    	jmpq   *0x20d742(%rip)        # 21af88 <_ZNSaIcEC1Ev@GLIBCXX_3.4>
    d846:	68 41 00 00 00       	pushq  $0x41
    d84b:	e9 d0 fb ff ff       	jmpq   d420 <.plt>

000000000000d850 <_ZN17ElectionCommision11addNewStateEiNSt7__cxx1112basic_stringIcSt11char_traitsIcESaIcEEEi@plt>:
    d850:	ff 25 3a d7 20 00    	jmpq   *0x20d73a(%rip)        # 21af90 <_ZN17ElectionCommision11addNewStateEiNSt7__cxx1112basic_stringIcSt11char_traitsIcESaIcEEEi>
    d856:	68 42 00 00 00       	pushq  $0x42
    d85b:	e9 c0 fb ff ff       	jmpq   d420 <.plt>

000000000000d860 <_ZN9Candidate12getPartyNameB5cxx11Ev@plt>:
    d860:	ff 25 32 d7 20 00    	jmpq   *0x20d732(%rip)        # 21af98 <_ZN9Candidate12getPartyNameB5cxx11Ev>
    d866:	68 43 00 00 00       	pushq  $0x43
    d86b:	e9 b0 fb ff ff       	jmpq   d420 <.plt>

000000000000d870 <_ZNSt7__cxx1112basic_stringIcSt11char_traitsIcESaIcEE6appendEPKc@plt>:
    d870:	ff 25 2a d7 20 00    	jmpq   *0x20d72a(%rip)        # 21afa0 <_ZNSt7__cxx1112basic_stringIcSt11char_traitsIcESaIcEE6appendEPKc@GLIBCXX_3.4.21>
    d876:	68 44 00 00 00       	pushq  $0x44
    d87b:	e9 a0 fb ff ff       	jmpq   d420 <.plt>

000000000000d880 <fwrite@plt>:
    d880:	ff 25 22 d7 20 00    	jmpq   *0x20d722(%rip)        # 21afa8 <fwrite@GLIBC_2.2.5>
    d886:	68 45 00 00 00       	pushq  $0x45
    d88b:	e9 90 fb ff ff       	jmpq   d420 <.plt>

000000000000d890 <_ZNSt7__cxx1112basic_stringIcSt11char_traitsIcESaIcEE6appendERKS4_@plt>:
    d890:	ff 25 1a d7 20 00    	jmpq   *0x20d71a(%rip)        # 21afb0 <_ZNSt7__cxx1112basic_stringIcSt11char_traitsIcESaIcEE6appendERKS4_@GLIBCXX_3.4.21>
    d896:	68 46 00 00 00       	pushq  $0x46
    d89b:	e9 80 fb ff ff       	jmpq   d420 <.plt>

Disassembly of section .plt.got:

000000000000d8a0 <__cxa_finalize@plt>:
    d8a0:	ff 25 12 d7 20 00    	jmpq   *0x20d712(%rip)        # 21afb8 <__cxa_finalize@GLIBC_2.2.5>
    d8a6:	66 90                	xchg   %ax,%ax

Disassembly of section .text:

000000000000d8b0 <_start>:
    d8b0:	31 ed                	xor    %ebp,%ebp
    d8b2:	49 89 d1             	mov    %rdx,%r9
    d8b5:	5e                   	pop    %rsi
    d8b6:	48 89 e2             	mov    %rsp,%rdx
    d8b9:	48 83 e4 f0          	and    $0xfffffffffffffff0,%rsp
    d8bd:	50                   	push   %rax
    d8be:	54                   	push   %rsp
    d8bf:	4c 8d 05 da 7a 00 00 	lea    0x7ada(%rip),%r8        # 153a0 <__libc_csu_fini>
    d8c6:	48 8d 0d 63 7a 00 00 	lea    0x7a63(%rip),%rcx        # 15330 <__libc_csu_init>
    d8cd:	48 8d 3d 18 05 00 00 	lea    0x518(%rip),%rdi        # ddec <main>
    d8d4:	ff 15 06 d7 20 00    	callq  *0x20d706(%rip)        # 21afe0 <__libc_start_main@GLIBC_2.2.5>
    d8da:	f4                   	hlt    
    d8db:	0f 1f 44 00 00       	nopl   0x0(%rax,%rax,1)

000000000000d8e0 <deregister_tm_clones>:
    d8e0:	48 8d 3d 31 d7 20 00 	lea    0x20d731(%rip),%rdi        # 21b018 <__TMC_END__>
    d8e7:	55                   	push   %rbp
    d8e8:	48 8d 05 29 d7 20 00 	lea    0x20d729(%rip),%rax        # 21b018 <__TMC_END__>
    d8ef:	48 39 f8             	cmp    %rdi,%rax
    d8f2:	48 89 e5             	mov    %rsp,%rbp
    d8f5:	74 19                	je     d910 <deregister_tm_clones+0x30>
    d8f7:	48 8b 05 da d6 20 00 	mov    0x20d6da(%rip),%rax        # 21afd8 <_ITM_deregisterTMCloneTable>
    d8fe:	48 85 c0             	test   %rax,%rax
    d901:	74 0d                	je     d910 <deregister_tm_clones+0x30>
    d903:	5d                   	pop    %rbp
    d904:	ff e0                	jmpq   *%rax
    d906:	66 2e 0f 1f 84 00 00 	nopw   %cs:0x0(%rax,%rax,1)
    d90d:	00 00 00 
    d910:	5d                   	pop    %rbp
    d911:	c3                   	retq   
    d912:	0f 1f 40 00          	nopl   0x0(%rax)
    d916:	66 2e 0f 1f 84 00 00 	nopw   %cs:0x0(%rax,%rax,1)
    d91d:	00 00 00 

000000000000d920 <register_tm_clones>:
    d920:	48 8d 3d f1 d6 20 00 	lea    0x20d6f1(%rip),%rdi        # 21b018 <__TMC_END__>
    d927:	48 8d 35 ea d6 20 00 	lea    0x20d6ea(%rip),%rsi        # 21b018 <__TMC_END__>
    d92e:	55                   	push   %rbp
    d92f:	48 29 fe             	sub    %rdi,%rsi
    d932:	48 89 e5             	mov    %rsp,%rbp
    d935:	48 c1 fe 03          	sar    $0x3,%rsi
    d939:	48 89 f0             	mov    %rsi,%rax
    d93c:	48 c1 e8 3f          	shr    $0x3f,%rax
    d940:	48 01 c6             	add    %rax,%rsi
    d943:	48 d1 fe             	sar    %rsi
    d946:	74 18                	je     d960 <register_tm_clones+0x40>
    d948:	48 8b 05 a1 d6 20 00 	mov    0x20d6a1(%rip),%rax        # 21aff0 <_ITM_registerTMCloneTable>
    d94f:	48 85 c0             	test   %rax,%rax
    d952:	74 0c                	je     d960 <register_tm_clones+0x40>
    d954:	5d                   	pop    %rbp
    d955:	ff e0                	jmpq   *%rax
    d957:	66 0f 1f 84 00 00 00 	nopw   0x0(%rax,%rax,1)
    d95e:	00 00 
    d960:	5d                   	pop    %rbp
    d961:	c3                   	retq   
    d962:	0f 1f 40 00          	nopl   0x0(%rax)
    d966:	66 2e 0f 1f 84 00 00 	nopw   %cs:0x0(%rax,%rax,1)
    d96d:	00 00 00 

000000000000d970 <__do_global_dtors_aux>:
    d970:	80 3d 01 d9 20 00 00 	cmpb   $0x0,0x20d901(%rip)        # 21b278 <completed.7698>
    d977:	75 2f                	jne    d9a8 <__do_global_dtors_aux+0x38>
    d979:	48 83 3d 37 d6 20 00 	cmpq   $0x0,0x20d637(%rip)        # 21afb8 <__cxa_finalize@GLIBC_2.2.5>
    d980:	00 
    d981:	55                   	push   %rbp
    d982:	48 89 e5             	mov    %rsp,%rbp
    d985:	74 0c                	je     d993 <__do_global_dtors_aux+0x23>
    d987:	48 8b 3d 7a d6 20 00 	mov    0x20d67a(%rip),%rdi        # 21b008 <__dso_handle>
    d98e:	e8 0d ff ff ff       	callq  d8a0 <__cxa_finalize@plt>
    d993:	e8 48 ff ff ff       	callq  d8e0 <deregister_tm_clones>
    d998:	c6 05 d9 d8 20 00 01 	movb   $0x1,0x20d8d9(%rip)        # 21b278 <completed.7698>
    d99f:	5d                   	pop    %rbp
    d9a0:	c3                   	retq   
    d9a1:	0f 1f 80 00 00 00 00 	nopl   0x0(%rax)
    d9a8:	f3 c3                	repz retq 
    d9aa:	66 0f 1f 44 00 00    	nopw   0x0(%rax,%rax,1)

000000000000d9b0 <frame_dummy>:
    d9b0:	55                   	push   %rbp
    d9b1:	48 89 e5             	mov    %rsp,%rbp
    d9b4:	5d                   	pop    %rbp
    d9b5:	e9 66 ff ff ff       	jmpq   d920 <register_tm_clones>

000000000000d9ba <_ZL18__gthread_active_pv>:
    d9ba:	55                   	push   %rbp
    d9bb:	48 89 e5             	mov    %rsp,%rbp
    d9be:	ba 01 00 00 00       	mov    $0x1,%edx
    d9c3:	48 8b 05 06 d6 20 00 	mov    0x20d606(%rip),%rax        # 21afd0 <__pthread_key_create@GLIBC_2.2.5>
    d9ca:	48 85 c0             	test   %rax,%rax
    d9cd:	75 05                	jne    d9d4 <_ZL18__gthread_active_pv+0x1a>
    d9cf:	ba 00 00 00 00       	mov    $0x0,%edx
    d9d4:	0f b6 c2             	movzbl %dl,%eax
    d9d7:	5d                   	pop    %rbp
    d9d8:	c3                   	retq   

000000000000d9d9 <_ZL14__gthread_selfv>:
    d9d9:	55                   	push   %rbp
    d9da:	48 89 e5             	mov    %rsp,%rbp
    d9dd:	e8 0e fc ff ff       	callq  d5f0 <pthread_self@plt>
    d9e2:	5d                   	pop    %rbp
    d9e3:	c3                   	retq   

000000000000d9e4 <_Z8callbackPviPPcS1_>:
    d9e4:	55                   	push   %rbp
    d9e5:	48 89 e5             	mov    %rsp,%rbp
    d9e8:	48 83 ec 30          	sub    $0x30,%rsp
    d9ec:	48 89 7d e8          	mov    %rdi,-0x18(%rbp)
    d9f0:	89 75 e4             	mov    %esi,-0x1c(%rbp)
    d9f3:	48 89 55 d8          	mov    %rdx,-0x28(%rbp)
    d9f7:	48 89 4d d0          	mov    %rcx,-0x30(%rbp)
    d9fb:	48 8b 05 3e d7 20 00 	mov    0x20d73e(%rip),%rax        # 21b140 <stderr@@GLIBC_2.2.5>
    da02:	48 8b 55 e8          	mov    -0x18(%rbp),%rdx
    da06:	48 8d 35 c3 79 00 00 	lea    0x79c3(%rip),%rsi        # 153d0 <_ZN9__gnu_cxxL21__default_lock_policyE+0x4>
    da0d:	48 89 c7             	mov    %rax,%rdi
    da10:	b8 00 00 00 00       	mov    $0x0,%eax
    da15:	e8 66 fd ff ff       	callq  d780 <fprintf@plt>
    da1a:	c7 45 fc 00 00 00 00 	movl   $0x0,-0x4(%rbp)
    da21:	8b 45 fc             	mov    -0x4(%rbp),%eax
    da24:	3b 45 e4             	cmp    -0x1c(%rbp),%eax
    da27:	7d 71                	jge    da9a <_Z8callbackPviPPcS1_+0xb6>
    da29:	8b 45 fc             	mov    -0x4(%rbp),%eax
    da2c:	48 98                	cltq   
    da2e:	48 8d 14 c5 00 00 00 	lea    0x0(,%rax,8),%rdx
    da35:	00 
    da36:	48 8b 45 d8          	mov    -0x28(%rbp),%rax
    da3a:	48 01 d0             	add    %rdx,%rax
    da3d:	48 8b 00             	mov    (%rax),%rax
    da40:	48 85 c0             	test   %rax,%rax
    da43:	74 19                	je     da5e <_Z8callbackPviPPcS1_+0x7a>
    da45:	8b 45 fc             	mov    -0x4(%rbp),%eax
    da48:	48 98                	cltq   
    da4a:	48 8d 14 c5 00 00 00 	lea    0x0(,%rax,8),%rdx
    da51:	00 
    da52:	48 8b 45 d8          	mov    -0x28(%rbp),%rax
    da56:	48 01 d0             	add    %rdx,%rax
    da59:	48 8b 00             	mov    (%rax),%rax
    da5c:	eb 07                	jmp    da65 <_Z8callbackPviPPcS1_+0x81>
    da5e:	48 8d 05 70 79 00 00 	lea    0x7970(%rip),%rax        # 153d5 <_ZN9__gnu_cxxL21__default_lock_policyE+0x9>
    da65:	8b 55 fc             	mov    -0x4(%rbp),%edx
    da68:	48 63 d2             	movslq %edx,%rdx
    da6b:	48 8d 0c d5 00 00 00 	lea    0x0(,%rdx,8),%rcx
    da72:	00 
    da73:	48 8b 55 d0          	mov    -0x30(%rbp),%rdx
    da77:	48 01 ca             	add    %rcx,%rdx
    da7a:	48 8b 0a             	mov    (%rdx),%rcx
    da7d:	48 89 c2             	mov    %rax,%rdx
    da80:	48 89 ce             	mov    %rcx,%rsi
    da83:	48 8d 3d 50 79 00 00 	lea    0x7950(%rip),%rdi        # 153da <_ZN9__gnu_cxxL21__default_lock_policyE+0xe>
    da8a:	b8 00 00 00 00       	mov    $0x0,%eax
    da8f:	e8 9c f9 ff ff       	callq  d430 <printf@plt>
    da94:	83 45 fc 01          	addl   $0x1,-0x4(%rbp)
    da98:	eb 87                	jmp    da21 <_Z8callbackPviPPcS1_+0x3d>
    da9a:	bf 0a 00 00 00       	mov    $0xa,%edi
    da9f:	e8 cc fc ff ff       	callq  d770 <putchar@plt>
    daa4:	b8 00 00 00 00       	mov    $0x0,%eax
    daa9:	c9                   	leaveq 
    daaa:	c3                   	retq   

000000000000daab <_Z9threadFunv>:
    daab:	55                   	push   %rbp
    daac:	48 89 e5             	mov    %rsp,%rbp
    daaf:	53                   	push   %rbx
    dab0:	48 81 ec a8 00 00 00 	sub    $0xa8,%rsp
    dab7:	64 48 8b 04 25 28 00 	mov    %fs:0x28,%rax
    dabe:	00 00 
    dac0:	48 89 45 e8          	mov    %rax,-0x18(%rbp)
    dac4:	31 c0                	xor    %eax,%eax
    dac6:	48 8d 35 1b 79 00 00 	lea    0x791b(%rip),%rsi        # 153e8 <_ZN9__gnu_cxxL21__default_lock_policyE+0x1c>
    dacd:	48 8d 3d 4c d5 20 00 	lea    0x20d54c(%rip),%rdi        # 21b020 <_ZSt4cout@@GLIBCXX_3.4>
    dad4:	e8 87 fb ff ff       	callq  d660 <_ZStlsISt11char_traitsIcEERSt13basic_ostreamIcT_ES5_PKc@plt>
    dad9:	48 89 c3             	mov    %rax,%rbx
    dadc:	e8 0e 17 00 00       	callq  f1ef <_ZNSt11this_thread6get_idEv>
    dae1:	48 89 c6             	mov    %rax,%rsi
    dae4:	48 89 df             	mov    %rbx,%rdi
    dae7:	e8 a7 17 00 00       	callq  f293 <_ZStlsIcSt11char_traitsIcEERSt13basic_ostreamIT_T0_ES6_NSt6thread2idE>
    daec:	48 89 c2             	mov    %rax,%rdx
    daef:	48 8b 05 ca d4 20 00 	mov    0x20d4ca(%rip),%rax        # 21afc0 <_ZSt4endlIcSt11char_traitsIcEERSt13basic_ostreamIT_T0_ES6_@GLIBCXX_3.4>
    daf6:	48 89 c6             	mov    %rax,%rsi
    daf9:	48 89 d7             	mov    %rdx,%rdi
    dafc:	e8 af fb ff ff       	callq  d6b0 <_ZNSolsEPFRSoS_E@plt>
    db01:	48 c7 85 68 ff ff ff 	movq   $0x0,-0x98(%rbp)
    db08:	00 00 00 00 
    db0c:	48 8d 45 80          	lea    -0x80(%rbp),%rax
    db10:	48 89 c7             	mov    %rax,%rdi
    db13:	e8 38 fc ff ff       	callq  d750 <_ZNSt7__cxx1112basic_stringIcSt11char_traitsIcESaIcEEC1Ev@plt>
    db18:	48 8d 05 f0 78 00 00 	lea    0x78f0(%rip),%rax        # 1540f <_ZN9__gnu_cxxL21__default_lock_policyE+0x43>
    db1f:	48 89 85 70 ff ff ff 	mov    %rax,-0x90(%rbp)
    db26:	8b 05 5c d7 20 00    	mov    0x20d75c(%rip),%eax        # 21b288 <rc>
    db2c:	85 c0                	test   %eax,%eax
    db2e:	74 2f                	je     db5f <_Z9threadFunv+0xb4>
    db30:	48 8b 05 49 d7 20 00 	mov    0x20d749(%rip),%rax        # 21b280 <db>
    db37:	48 89 c7             	mov    %rax,%rdi
    db3a:	e8 01 fb ff ff       	callq  d640 <sqlite3_errmsg@plt>
    db3f:	48 89 c2             	mov    %rax,%rdx
    db42:	48 8b 05 f7 d5 20 00 	mov    0x20d5f7(%rip),%rax        # 21b140 <stderr@@GLIBC_2.2.5>
    db49:	48 8d 35 d8 78 00 00 	lea    0x78d8(%rip),%rsi        # 15428 <_ZN9__gnu_cxxL21__default_lock_policyE+0x5c>
    db50:	48 89 c7             	mov    %rax,%rdi
    db53:	b8 00 00 00 00       	mov    $0x0,%eax
    db58:	e8 23 fc ff ff       	callq  d780 <fprintf@plt>
    db5d:	eb 20                	jmp    db7f <_Z9threadFunv+0xd4>
    db5f:	48 8b 05 da d5 20 00 	mov    0x20d5da(%rip),%rax        # 21b140 <stderr@@GLIBC_2.2.5>
    db66:	48 89 c1             	mov    %rax,%rcx
    db69:	ba 1d 00 00 00       	mov    $0x1d,%edx
    db6e:	be 01 00 00 00       	mov    $0x1,%esi
    db73:	48 8d 3d c7 78 00 00 	lea    0x78c7(%rip),%rdi        # 15441 <_ZN9__gnu_cxxL21__default_lock_policyE+0x75>
    db7a:	e8 01 fd ff ff       	callq  d880 <fwrite@plt>
    db7f:	48 8d 45 80          	lea    -0x80(%rbp),%rax
    db83:	48 8d 35 d5 78 00 00 	lea    0x78d5(%rip),%rsi        # 1545f <_ZN9__gnu_cxxL21__default_lock_policyE+0x93>
    db8a:	48 89 c7             	mov    %rax,%rdi
    db8d:	e8 9e fb ff ff       	callq  d730 <_ZNSt7__cxx1112basic_stringIcSt11char_traitsIcESaIcEEaSEPKc@plt>
    db92:	48 8d 45 80          	lea    -0x80(%rbp),%rax
    db96:	48 89 c7             	mov    %rax,%rdi
    db99:	e8 52 f9 ff ff       	callq  d4f0 <_ZNKSt7__cxx1112basic_stringIcSt11char_traitsIcESaIcEE5c_strEv@plt>
    db9e:	48 89 85 78 ff ff ff 	mov    %rax,-0x88(%rbp)
    dba5:	48 8b 05 d4 d6 20 00 	mov    0x20d6d4(%rip),%rax        # 21b280 <db>
    dbac:	48 8d 95 60 ff ff ff 	lea    -0xa0(%rbp),%rdx
    dbb3:	48 8b b5 78 ff ff ff 	mov    -0x88(%rbp),%rsi
    dbba:	41 b8 00 00 00 00    	mov    $0x0,%r8d
    dbc0:	48 89 d1             	mov    %rdx,%rcx
    dbc3:	ba ff ff ff ff       	mov    $0xffffffff,%edx
    dbc8:	48 89 c7             	mov    %rax,%rdi
    dbcb:	e8 60 fa ff ff       	callq  d630 <sqlite3_prepare_v2@plt>
    dbd0:	89 05 b2 d6 20 00    	mov    %eax,0x20d6b2(%rip)        # 21b288 <rc>
    dbd6:	8b 05 ac d6 20 00    	mov    0x20d6ac(%rip),%eax        # 21b288 <rc>
    dbdc:	85 c0                	test   %eax,%eax
    dbde:	74 22                	je     dc02 <_Z9threadFunv+0x157>
    dbe0:	48 8b 05 59 d5 20 00 	mov    0x20d559(%rip),%rax        # 21b140 <stderr@@GLIBC_2.2.5>
    dbe7:	48 8b 95 68 ff ff ff 	mov    -0x98(%rbp),%rdx
    dbee:	48 8d 35 7e 78 00 00 	lea    0x787e(%rip),%rsi        # 15473 <_ZN9__gnu_cxxL21__default_lock_policyE+0xa7>
    dbf5:	48 89 c7             	mov    %rax,%rdi
    dbf8:	b8 00 00 00 00       	mov    $0x0,%eax
    dbfd:	e8 7e fb ff ff       	callq  d780 <fprintf@plt>
    dc02:	48 8b 85 60 ff ff ff 	mov    -0xa0(%rbp),%rax
    dc09:	48 89 c7             	mov    %rax,%rdi
    dc0c:	e8 4f fb ff ff       	callq  d760 <sqlite3_step@plt>
    dc11:	89 05 71 d6 20 00    	mov    %eax,0x20d671(%rip)        # 21b288 <rc>
    dc17:	8b 05 6b d6 20 00    	mov    0x20d66b(%rip),%eax        # 21b288 <rc>
    dc1d:	83 f8 64             	cmp    $0x64,%eax
    dc20:	0f 94 c0             	sete   %al
    dc23:	84 c0                	test   %al,%al
    dc25:	0f 84 cd 00 00 00    	je     dcf8 <_Z9threadFunv+0x24d>
    dc2b:	48 8b 85 60 ff ff ff 	mov    -0xa0(%rbp),%rax
    dc32:	be 00 00 00 00       	mov    $0x0,%esi
    dc37:	48 89 c7             	mov    %rax,%rdi
    dc3a:	e8 21 f8 ff ff       	callq  d460 <sqlite3_column_int@plt>
    dc3f:	89 85 58 ff ff ff    	mov    %eax,-0xa8(%rbp)
    dc45:	48 8d 85 57 ff ff ff 	lea    -0xa9(%rbp),%rax
    dc4c:	48 89 c7             	mov    %rax,%rdi
    dc4f:	e8 ec fb ff ff       	callq  d840 <_ZNSaIcEC1Ev@plt>
    dc54:	48 8b 85 60 ff ff ff 	mov    -0xa0(%rbp),%rax
    dc5b:	be 01 00 00 00       	mov    $0x1,%esi
    dc60:	48 89 c7             	mov    %rax,%rdi
    dc63:	e8 48 f9 ff ff       	callq  d5b0 <sqlite3_column_text@plt>
    dc68:	48 89 c1             	mov    %rax,%rcx
    dc6b:	48 8d 95 57 ff ff ff 	lea    -0xa9(%rbp),%rdx
    dc72:	48 8d 45 a0          	lea    -0x60(%rbp),%rax
    dc76:	48 89 ce             	mov    %rcx,%rsi
    dc79:	48 89 c7             	mov    %rax,%rdi
    dc7c:	e8 bf fa ff ff       	callq  d740 <_ZNSt7__cxx1112basic_stringIcSt11char_traitsIcESaIcEEC1EPKcRKS3_@plt>
    dc81:	48 8d 85 57 ff ff ff 	lea    -0xa9(%rbp),%rax
    dc88:	48 89 c7             	mov    %rax,%rdi
    dc8b:	e8 30 fa ff ff       	callq  d6c0 <_ZNSaIcED1Ev@plt>
    dc90:	48 8b 85 60 ff ff ff 	mov    -0xa0(%rbp),%rax
    dc97:	be 02 00 00 00       	mov    $0x2,%esi
    dc9c:	48 89 c7             	mov    %rax,%rdi
    dc9f:	e8 bc f7 ff ff       	callq  d460 <sqlite3_column_int@plt>
    dca4:	89 85 5c ff ff ff    	mov    %eax,-0xa4(%rbp)
    dcaa:	48 8d 55 a0          	lea    -0x60(%rbp),%rdx
    dcae:	48 8d 45 c0          	lea    -0x40(%rbp),%rax
    dcb2:	48 89 d6             	mov    %rdx,%rsi
    dcb5:	48 89 c7             	mov    %rax,%rdi
    dcb8:	e8 43 f8 ff ff       	callq  d500 <_ZNSt7__cxx1112basic_stringIcSt11char_traitsIcESaIcEEC1ERKS4_@plt>
    dcbd:	8b 8d 5c ff ff ff    	mov    -0xa4(%rbp),%ecx
    dcc3:	48 8d 55 c0          	lea    -0x40(%rbp),%rdx
    dcc7:	8b 85 58 ff ff ff    	mov    -0xa8(%rbp),%eax
    dccd:	89 c6                	mov    %eax,%esi
    dccf:	48 8d 3d ca d5 20 00 	lea    0x20d5ca(%rip),%rdi        # 21b2a0 <e>
    dcd6:	e8 75 fb ff ff       	callq  d850 <_ZN17ElectionCommision11addNewStateEiNSt7__cxx1112basic_stringIcSt11char_traitsIcESaIcEEEi@plt>
    dcdb:	48 8d 45 c0          	lea    -0x40(%rbp),%rax
    dcdf:	48 89 c7             	mov    %rax,%rdi
    dce2:	e8 59 f8 ff ff       	callq  d540 <_ZNSt7__cxx1112basic_stringIcSt11char_traitsIcESaIcEED1Ev@plt>
    dce7:	48 8d 45 a0          	lea    -0x60(%rbp),%rax
    dceb:	48 89 c7             	mov    %rax,%rdi
    dcee:	e8 4d f8 ff ff       	callq  d540 <_ZNSt7__cxx1112basic_stringIcSt11char_traitsIcESaIcEED1Ev@plt>
    dcf3:	e9 0a ff ff ff       	jmpq   dc02 <_Z9threadFunv+0x157>
    dcf8:	8b 05 8a d5 20 00    	mov    0x20d58a(%rip),%eax        # 21b288 <rc>
    dcfe:	83 f8 65             	cmp    $0x65,%eax
    dd01:	74 22                	je     dd25 <_Z9threadFunv+0x27a>
    dd03:	48 8b 05 36 d4 20 00 	mov    0x20d436(%rip),%rax        # 21b140 <stderr@@GLIBC_2.2.5>
    dd0a:	48 8b 95 68 ff ff ff 	mov    -0x98(%rbp),%rdx
    dd11:	48 8d 35 5b 77 00 00 	lea    0x775b(%rip),%rsi        # 15473 <_ZN9__gnu_cxxL21__default_lock_policyE+0xa7>
    dd18:	48 89 c7             	mov    %rax,%rdi
    dd1b:	b8 00 00 00 00       	mov    $0x0,%eax
    dd20:	e8 5b fa ff ff       	callq  d780 <fprintf@plt>
    dd25:	48 8b 85 60 ff ff ff 	mov    -0xa0(%rbp),%rax
    dd2c:	48 89 c7             	mov    %rax,%rdi
    dd2f:	e8 ac fa ff ff       	callq  d7e0 <sqlite3_finalize@plt>
    dd34:	48 8d 35 4d 77 00 00 	lea    0x774d(%rip),%rsi        # 15488 <_ZN9__gnu_cxxL21__default_lock_policyE+0xbc>
    dd3b:	48 8d 3d de d2 20 00 	lea    0x20d2de(%rip),%rdi        # 21b020 <_ZSt4cout@@GLIBCXX_3.4>
    dd42:	e8 19 f9 ff ff       	callq  d660 <_ZStlsISt11char_traitsIcEERSt13basic_ostreamIcT_ES5_PKc@plt>
    dd47:	48 89 c3             	mov    %rax,%rbx
    dd4a:	e8 a0 14 00 00       	callq  f1ef <_ZNSt11this_thread6get_idEv>
    dd4f:	48 89 c6             	mov    %rax,%rsi
    dd52:	48 89 df             	mov    %rbx,%rdi
    dd55:	e8 39 15 00 00       	callq  f293 <_ZStlsIcSt11char_traitsIcEERSt13basic_ostreamIT_T0_ES6_NSt6thread2idE>
    dd5a:	48 89 c2             	mov    %rax,%rdx
    dd5d:	48 8b 05 5c d2 20 00 	mov    0x20d25c(%rip),%rax        # 21afc0 <_ZSt4endlIcSt11char_traitsIcEERSt13basic_ostreamIT_T0_ES6_@GLIBCXX_3.4>
    dd64:	48 89 c6             	mov    %rax,%rsi
    dd67:	48 89 d7             	mov    %rdx,%rdi
    dd6a:	e8 41 f9 ff ff       	callq  d6b0 <_ZNSolsEPFRSoS_E@plt>
    dd6f:	48 8d 45 80          	lea    -0x80(%rbp),%rax
    dd73:	48 89 c7             	mov    %rax,%rdi
    dd76:	e8 c5 f7 ff ff       	callq  d540 <_ZNSt7__cxx1112basic_stringIcSt11char_traitsIcESaIcEED1Ev@plt>
    dd7b:	90                   	nop
    dd7c:	48 8b 45 e8          	mov    -0x18(%rbp),%rax
    dd80:	64 48 33 04 25 28 00 	xor    %fs:0x28,%rax
    dd87:	00 00 
    dd89:	74 57                	je     dde2 <_Z9threadFunv+0x337>
    dd8b:	eb 50                	jmp    dddd <_Z9threadFunv+0x332>
    dd8d:	48 89 c3             	mov    %rax,%rbx
    dd90:	48 8d 85 57 ff ff ff 	lea    -0xa9(%rbp),%rax
    dd97:	48 89 c7             	mov    %rax,%rdi
    dd9a:	e8 21 f9 ff ff       	callq  d6c0 <_ZNSaIcED1Ev@plt>
    dd9f:	eb 25                	jmp    ddc6 <_Z9threadFunv+0x31b>
    dda1:	48 89 c3             	mov    %rax,%rbx
    dda4:	48 8d 45 c0          	lea    -0x40(%rbp),%rax
    dda8:	48 89 c7             	mov    %rax,%rdi
    ddab:	e8 90 f7 ff ff       	callq  d540 <_ZNSt7__cxx1112basic_stringIcSt11char_traitsIcESaIcEED1Ev@plt>
    ddb0:	eb 03                	jmp    ddb5 <_Z9threadFunv+0x30a>
    ddb2:	48 89 c3             	mov    %rax,%rbx
    ddb5:	48 8d 45 a0          	lea    -0x60(%rbp),%rax
    ddb9:	48 89 c7             	mov    %rax,%rdi
    ddbc:	e8 7f f7 ff ff       	callq  d540 <_ZNSt7__cxx1112basic_stringIcSt11char_traitsIcESaIcEED1Ev@plt>
    ddc1:	eb 03                	jmp    ddc6 <_Z9threadFunv+0x31b>
    ddc3:	48 89 c3             	mov    %rax,%rbx
    ddc6:	48 8d 45 80          	lea    -0x80(%rbp),%rax
    ddca:	48 89 c7             	mov    %rax,%rdi
    ddcd:	e8 6e f7 ff ff       	callq  d540 <_ZNSt7__cxx1112basic_stringIcSt11char_traitsIcESaIcEED1Ev@plt>
    ddd2:	48 89 d8             	mov    %rbx,%rax
    ddd5:	48 89 c7             	mov    %rax,%rdi
    ddd8:	e8 53 fa ff ff       	callq  d830 <_Unwind_Resume@plt>
    dddd:	e8 fe f8 ff ff       	callq  d6e0 <__stack_chk_fail@plt>
    dde2:	48 81 c4 a8 00 00 00 	add    $0xa8,%rsp
    dde9:	5b                   	pop    %rbx
    ddea:	5d                   	pop    %rbp
    ddeb:	c3                   	retq   

000000000000ddec <main>:
    ddec:	55                   	push   %rbp
    dded:	48 89 e5             	mov    %rsp,%rbp
    ddf0:	53                   	push   %rbx
    ddf1:	48 83 ec 28          	sub    $0x28,%rsp
    ddf5:	64 48 8b 04 25 28 00 	mov    %fs:0x28,%rax
    ddfc:	00 00 
    ddfe:	48 89 45 e8          	mov    %rax,-0x18(%rbp)
    de02:	31 c0                	xor    %eax,%eax
    de04:	48 8d 45 e0          	lea    -0x20(%rbp),%rax
    de08:	48 8d 35 9c fc ff ff 	lea    -0x364(%rip),%rsi        # daab <_Z9threadFunv>
    de0f:	48 89 c7             	mov    %rax,%rdi
    de12:	e8 6d 15 00 00       	callq  f384 <_ZNSt6threadC1IRFvvEJEEEOT_DpOT0_>
    de17:	48 8d 35 92 76 00 00 	lea    0x7692(%rip),%rsi        # 154b0 <_ZN9__gnu_cxxL21__default_lock_policyE+0xe4>
    de1e:	48 8d 3d fb d1 20 00 	lea    0x20d1fb(%rip),%rdi        # 21b020 <_ZSt4cout@@GLIBCXX_3.4>
    de25:	e8 36 f8 ff ff       	callq  d660 <_ZStlsISt11char_traitsIcEERSt13basic_ostreamIcT_ES5_PKc@plt>
    de2a:	48 89 c3             	mov    %rax,%rbx
    de2d:	e8 bd 13 00 00       	callq  f1ef <_ZNSt11this_thread6get_idEv>
    de32:	48 89 c6             	mov    %rax,%rsi
    de35:	48 89 df             	mov    %rbx,%rdi
    de38:	e8 56 14 00 00       	callq  f293 <_ZStlsIcSt11char_traitsIcEERSt13basic_ostreamIT_T0_ES6_NSt6thread2idE>
    de3d:	48 89 c2             	mov    %rax,%rdx
    de40:	48 8b 05 79 d1 20 00 	mov    0x20d179(%rip),%rax        # 21afc0 <_ZSt4endlIcSt11char_traitsIcEERSt13basic_ostreamIT_T0_ES6_@GLIBCXX_3.4>
    de47:	48 89 c6             	mov    %rax,%rsi
    de4a:	48 89 d7             	mov    %rdx,%rdi
    de4d:	e8 5e f8 ff ff       	callq  d6b0 <_ZNSolsEPFRSoS_E@plt>
    de52:	48 8d 35 7f 76 00 00 	lea    0x767f(%rip),%rsi        # 154d8 <_ZN9__gnu_cxxL21__default_lock_policyE+0x10c>
    de59:	48 8d 3d c0 d1 20 00 	lea    0x20d1c0(%rip),%rdi        # 21b020 <_ZSt4cout@@GLIBCXX_3.4>
    de60:	e8 fb f7 ff ff       	callq  d660 <_ZStlsISt11char_traitsIcEERSt13basic_ostreamIcT_ES5_PKc@plt>
    de65:	48 89 c2             	mov    %rax,%rdx
    de68:	48 8b 05 51 d1 20 00 	mov    0x20d151(%rip),%rax        # 21afc0 <_ZSt4endlIcSt11char_traitsIcEERSt13basic_ostreamIT_T0_ES6_@GLIBCXX_3.4>
    de6f:	48 89 c6             	mov    %rax,%rsi
    de72:	48 89 d7             	mov    %rdx,%rdi
    de75:	e8 36 f8 ff ff       	callq  d6b0 <_ZNSolsEPFRSoS_E@plt>
    de7a:	48 8d 45 e0          	lea    -0x20(%rbp),%rax
    de7e:	48 89 c7             	mov    %rax,%rdi
    de81:	e8 7a f9 ff ff       	callq  d800 <_ZNSt6thread4joinEv@plt>
    de86:	48 8d 35 9b 76 00 00 	lea    0x769b(%rip),%rsi        # 15528 <_ZN9__gnu_cxxL21__default_lock_policyE+0x15c>
    de8d:	48 8d 3d 8c d1 20 00 	lea    0x20d18c(%rip),%rdi        # 21b020 <_ZSt4cout@@GLIBCXX_3.4>
    de94:	e8 c7 f7 ff ff       	callq  d660 <_ZStlsISt11char_traitsIcEERSt13basic_ostreamIcT_ES5_PKc@plt>
    de99:	48 89 c2             	mov    %rax,%rdx
    de9c:	48 8b 05 1d d1 20 00 	mov    0x20d11d(%rip),%rax        # 21afc0 <_ZSt4endlIcSt11char_traitsIcEERSt13basic_ostreamIT_T0_ES6_@GLIBCXX_3.4>
    dea3:	48 89 c6             	mov    %rax,%rsi
    dea6:	48 89 d7             	mov    %rdx,%rdi
    dea9:	e8 02 f8 ff ff       	callq  d6b0 <_ZNSolsEPFRSoS_E@plt>
    deae:	48 8d 45 dc          	lea    -0x24(%rbp),%rax
    deb2:	48 89 c6             	mov    %rax,%rsi
    deb5:	48 8d 3d a4 d2 20 00 	lea    0x20d2a4(%rip),%rdi        # 21b160 <_ZSt3cin@@GLIBCXX_3.4>
    debc:	e8 6f f6 ff ff       	callq  d530 <_ZNSirsERi@plt>
    dec1:	8b 45 dc             	mov    -0x24(%rbp),%eax
    dec4:	83 f8 02             	cmp    $0x2,%eax
    dec7:	74 1f                	je     dee8 <main+0xfc>
    dec9:	83 f8 02             	cmp    $0x2,%eax
    decc:	7f 07                	jg     ded5 <main+0xe9>
    dece:	83 f8 01             	cmp    $0x1,%eax
    ded1:	74 0e                	je     dee1 <main+0xf5>
    ded3:	eb 28                	jmp    defd <main+0x111>
    ded5:	83 f8 03             	cmp    $0x3,%eax
    ded8:	74 15                	je     deef <main+0x103>
    deda:	83 f8 04             	cmp    $0x4,%eax
    dedd:	74 17                	je     def6 <main+0x10a>
    dedf:	eb 1c                	jmp    defd <main+0x111>
    dee1:	e8 a0 00 00 00       	callq  df86 <_Z13adminFuntionsv>
    dee6:	eb 15                	jmp    defd <main+0x111>
    dee8:	e8 77 01 00 00       	callq  e064 <_Z14voterFunctionsv>
    deed:	eb 0e                	jmp    defd <main+0x111>
    deef:	e8 bc 04 00 00       	callq  e3b0 <_Z18candidateFunctionsv>
    def4:	eb 07                	jmp    defd <main+0x111>
    def6:	bb 00 00 00 00       	mov    $0x0,%ebx
    defb:	eb 44                	jmp    df41 <main+0x155>
    defd:	48 8d 35 50 76 00 00 	lea    0x7650(%rip),%rsi        # 15554 <_ZN9__gnu_cxxL21__default_lock_policyE+0x188>
    df04:	48 8d 3d 15 d1 20 00 	lea    0x20d115(%rip),%rdi        # 21b020 <_ZSt4cout@@GLIBCXX_3.4>
    df0b:	e8 50 f7 ff ff       	callq  d660 <_ZStlsISt11char_traitsIcEERSt13basic_ostreamIcT_ES5_PKc@plt>
    df10:	48 8d 45 db          	lea    -0x25(%rbp),%rax
    df14:	48 89 c6             	mov    %rax,%rsi
    df17:	48 8d 3d 42 d2 20 00 	lea    0x20d242(%rip),%rdi        # 21b160 <_ZSt3cin@@GLIBCXX_3.4>
    df1e:	e8 fd f7 ff ff       	callq  d720 <_ZStrsIcSt11char_traitsIcEERSt13basic_istreamIT_T0_ES6_RS3_@plt>
    df23:	0f b6 45 db          	movzbl -0x25(%rbp),%eax
    df27:	3c 79                	cmp    $0x79,%al
    df29:	0f 84 57 ff ff ff    	je     de86 <main+0x9a>
    df2f:	0f b6 45 db          	movzbl -0x25(%rbp),%eax
    df33:	3c 59                	cmp    $0x59,%al
    df35:	75 05                	jne    df3c <main+0x150>
    df37:	e9 4a ff ff ff       	jmpq   de86 <main+0x9a>
    df3c:	bb 00 00 00 00       	mov    $0x0,%ebx
    df41:	48 8d 45 e0          	lea    -0x20(%rbp),%rax
    df45:	48 89 c7             	mov    %rax,%rdi
    df48:	e8 0f 12 00 00       	callq  f15c <_ZNSt6threadD1Ev>
    df4d:	89 d8                	mov    %ebx,%eax
    df4f:	48 8b 4d e8          	mov    -0x18(%rbp),%rcx
    df53:	64 48 33 0c 25 28 00 	xor    %fs:0x28,%rcx
    df5a:	00 00 
    df5c:	74 21                	je     df7f <main+0x193>
    df5e:	eb 1a                	jmp    df7a <main+0x18e>
    df60:	48 89 c3             	mov    %rax,%rbx
    df63:	48 8d 45 e0          	lea    -0x20(%rbp),%rax
    df67:	48 89 c7             	mov    %rax,%rdi
    df6a:	e8 ed 11 00 00       	callq  f15c <_ZNSt6threadD1Ev>
    df6f:	48 89 d8             	mov    %rbx,%rax
    df72:	48 89 c7             	mov    %rax,%rdi
    df75:	e8 b6 f8 ff ff       	callq  d830 <_Unwind_Resume@plt>
    df7a:	e8 61 f7 ff ff       	callq  d6e0 <__stack_chk_fail@plt>
    df7f:	48 83 c4 28          	add    $0x28,%rsp
    df83:	5b                   	pop    %rbx
    df84:	5d                   	pop    %rbp
    df85:	c3                   	retq   

000000000000df86 <_Z13adminFuntionsv>:
    df86:	55                   	push   %rbp
    df87:	48 89 e5             	mov    %rsp,%rbp
    df8a:	48 83 ec 10          	sub    $0x10,%rsp
    df8e:	64 48 8b 04 25 28 00 	mov    %fs:0x28,%rax
    df95:	00 00 
    df97:	48 89 45 f8          	mov    %rax,-0x8(%rbp)
    df9b:	31 c0                	xor    %eax,%eax
    df9d:	48 8d 35 cc 75 00 00 	lea    0x75cc(%rip),%rsi        # 15570 <_ZN9__gnu_cxxL21__default_lock_policyE+0x1a4>
    dfa4:	48 8d 3d 75 d0 20 00 	lea    0x20d075(%rip),%rdi        # 21b020 <_ZSt4cout@@GLIBCXX_3.4>
    dfab:	e8 b0 f6 ff ff       	callq  d660 <_ZStlsISt11char_traitsIcEERSt13basic_ostreamIcT_ES5_PKc@plt>
    dfb0:	48 89 c2             	mov    %rax,%rdx
    dfb3:	48 8b 05 06 d0 20 00 	mov    0x20d006(%rip),%rax        # 21afc0 <_ZSt4endlIcSt11char_traitsIcEERSt13basic_ostreamIT_T0_ES6_@GLIBCXX_3.4>
    dfba:	48 89 c6             	mov    %rax,%rsi
    dfbd:	48 89 d7             	mov    %rdx,%rdi
    dfc0:	e8 eb f6 ff ff       	callq  d6b0 <_ZNSolsEPFRSoS_E@plt>
    dfc5:	48 8d 45 f4          	lea    -0xc(%rbp),%rax
    dfc9:	48 89 c6             	mov    %rax,%rsi
    dfcc:	48 8d 3d 8d d1 20 00 	lea    0x20d18d(%rip),%rdi        # 21b160 <_ZSt3cin@@GLIBCXX_3.4>
    dfd3:	e8 58 f5 ff ff       	callq  d530 <_ZNSirsERi@plt>
    dfd8:	8b 45 f4             	mov    -0xc(%rbp),%eax
    dfdb:	83 f8 02             	cmp    $0x2,%eax
    dfde:	74 26                	je     e006 <_Z13adminFuntionsv+0x80>
    dfe0:	83 f8 02             	cmp    $0x2,%eax
    dfe3:	7f 07                	jg     dfec <_Z13adminFuntionsv+0x66>
    dfe5:	83 f8 01             	cmp    $0x1,%eax
    dfe8:	74 0e                	je     dff8 <_Z13adminFuntionsv+0x72>
    dfea:	eb 36                	jmp    e022 <_Z13adminFuntionsv+0x9c>
    dfec:	83 f8 03             	cmp    $0x3,%eax
    dfef:	74 23                	je     e014 <_Z13adminFuntionsv+0x8e>
    dff1:	83 f8 04             	cmp    $0x4,%eax
    dff4:	74 57                	je     e04d <_Z13adminFuntionsv+0xc7>
    dff6:	eb 2a                	jmp    e022 <_Z13adminFuntionsv+0x9c>
    dff8:	48 8d 3d a1 d2 20 00 	lea    0x20d2a1(%rip),%rdi        # 21b2a0 <e>
    dfff:	e8 ec f6 ff ff       	callq  d6f0 <_ZN17ElectionCommision14createElectionEv@plt>
    e004:	eb 48                	jmp    e04e <_Z13adminFuntionsv+0xc8>
    e006:	48 8d 3d 93 d2 20 00 	lea    0x20d293(%rip),%rdi        # 21b2a0 <e>
    e00d:	e8 de f7 ff ff       	callq  d7f0 <_ZN17ElectionCommision26showOngoingElectionDetailsEv@plt>
    e012:	eb 3a                	jmp    e04e <_Z13adminFuntionsv+0xc8>
    e014:	48 8d 3d 85 d2 20 00 	lea    0x20d285(%rip),%rdi        # 21b2a0 <e>
    e01b:	e8 30 f4 ff ff       	callq  d450 <_ZN17ElectionCommision10showStatesEv@plt>
    e020:	eb 2c                	jmp    e04e <_Z13adminFuntionsv+0xc8>
    e022:	48 8d 35 a5 75 00 00 	lea    0x75a5(%rip),%rsi        # 155ce <_ZN9__gnu_cxxL21__default_lock_policyE+0x202>
    e029:	48 8d 3d f0 cf 20 00 	lea    0x20cff0(%rip),%rdi        # 21b020 <_ZSt4cout@@GLIBCXX_3.4>
    e030:	e8 2b f6 ff ff       	callq  d660 <_ZStlsISt11char_traitsIcEERSt13basic_ostreamIcT_ES5_PKc@plt>
    e035:	48 89 c2             	mov    %rax,%rdx
    e038:	48 8b 05 81 cf 20 00 	mov    0x20cf81(%rip),%rax        # 21afc0 <_ZSt4endlIcSt11char_traitsIcEERSt13basic_ostreamIT_T0_ES6_@GLIBCXX_3.4>
    e03f:	48 89 c6             	mov    %rax,%rsi
    e042:	48 89 d7             	mov    %rdx,%rdi
    e045:	e8 66 f6 ff ff       	callq  d6b0 <_ZNSolsEPFRSoS_E@plt>
    e04a:	90                   	nop
    e04b:	eb 01                	jmp    e04e <_Z13adminFuntionsv+0xc8>
    e04d:	90                   	nop
    e04e:	48 8b 45 f8          	mov    -0x8(%rbp),%rax
    e052:	64 48 33 04 25 28 00 	xor    %fs:0x28,%rax
    e059:	00 00 
    e05b:	74 05                	je     e062 <_Z13adminFuntionsv+0xdc>
    e05d:	e8 7e f6 ff ff       	callq  d6e0 <__stack_chk_fail@plt>
    e062:	c9                   	leaveq 
    e063:	c3                   	retq   

000000000000e064 <_Z14voterFunctionsv>:
    e064:	55                   	push   %rbp
    e065:	48 89 e5             	mov    %rsp,%rbp
    e068:	53                   	push   %rbx
    e069:	48 81 ec a8 00 00 00 	sub    $0xa8,%rsp
    e070:	64 48 8b 04 25 28 00 	mov    %fs:0x28,%rax
    e077:	00 00 
    e079:	48 89 45 e8          	mov    %rax,-0x18(%rbp)
    e07d:	31 c0                	xor    %eax,%eax
    e07f:	48 8d 35 5a 75 00 00 	lea    0x755a(%rip),%rsi        # 155e0 <_ZN9__gnu_cxxL21__default_lock_policyE+0x214>
    e086:	48 8d 3d 93 cf 20 00 	lea    0x20cf93(%rip),%rdi        # 21b020 <_ZSt4cout@@GLIBCXX_3.4>
    e08d:	e8 ce f5 ff ff       	callq  d660 <_ZStlsISt11char_traitsIcEERSt13basic_ostreamIcT_ES5_PKc@plt>
    e092:	48 89 c2             	mov    %rax,%rdx
    e095:	48 8b 05 24 cf 20 00 	mov    0x20cf24(%rip),%rax        # 21afc0 <_ZSt4endlIcSt11char_traitsIcEERSt13basic_ostreamIT_T0_ES6_@GLIBCXX_3.4>
    e09c:	48 89 c6             	mov    %rax,%rsi
    e09f:	48 89 d7             	mov    %rdx,%rdi
    e0a2:	e8 09 f6 ff ff       	callq  d6b0 <_ZNSolsEPFRSoS_E@plt>
    e0a7:	48 8d 85 50 ff ff ff 	lea    -0xb0(%rbp),%rax
    e0ae:	48 89 c6             	mov    %rax,%rsi
    e0b1:	48 8d 3d a8 d0 20 00 	lea    0x20d0a8(%rip),%rdi        # 21b160 <_ZSt3cin@@GLIBCXX_3.4>
    e0b8:	e8 73 f4 ff ff       	callq  d530 <_ZNSirsERi@plt>
    e0bd:	48 8d 85 60 ff ff ff 	lea    -0xa0(%rbp),%rax
    e0c4:	48 89 c7             	mov    %rax,%rdi
    e0c7:	e8 84 f6 ff ff       	callq  d750 <_ZNSt7__cxx1112basic_stringIcSt11char_traitsIcESaIcEEC1Ev@plt>
    e0cc:	48 8d 45 80          	lea    -0x80(%rbp),%rax
    e0d0:	48 89 c7             	mov    %rax,%rdi
    e0d3:	e8 78 f6 ff ff       	callq  d750 <_ZNSt7__cxx1112basic_stringIcSt11char_traitsIcESaIcEEC1Ev@plt>
    e0d8:	8b 85 50 ff ff ff    	mov    -0xb0(%rbp),%eax
    e0de:	83 f8 02             	cmp    $0x2,%eax
    e0e1:	74 2a                	je     e10d <_Z14voterFunctionsv+0xa9>
    e0e3:	83 f8 03             	cmp    $0x3,%eax
    e0e6:	0f 84 f3 01 00 00    	je     e2df <_Z14voterFunctionsv+0x27b>
    e0ec:	83 f8 01             	cmp    $0x1,%eax
    e0ef:	0f 85 f1 01 00 00    	jne    e2e6 <_Z14voterFunctionsv+0x282>
    e0f5:	48 8d 3d a4 d1 20 00 	lea    0x20d1a4(%rip),%rdi        # 21b2a0 <e>
    e0fc:	e8 af f3 ff ff       	callq  d4b0 <_ZN17ElectionCommision16registerNewVoterEv@plt>
    e101:	48 89 85 58 ff ff ff 	mov    %rax,-0xa8(%rbp)
    e108:	e9 02 02 00 00       	jmpq   e30f <_Z14voterFunctionsv+0x2ab>
    e10d:	48 8d 35 09 75 00 00 	lea    0x7509(%rip),%rsi        # 1561d <_ZN9__gnu_cxxL21__default_lock_policyE+0x251>
    e114:	48 8d 3d 05 cf 20 00 	lea    0x20cf05(%rip),%rdi        # 21b020 <_ZSt4cout@@GLIBCXX_3.4>
    e11b:	e8 40 f5 ff ff       	callq  d660 <_ZStlsISt11char_traitsIcEERSt13basic_ostreamIcT_ES5_PKc@plt>
    e120:	48 89 c2             	mov    %rax,%rdx
    e123:	48 8b 05 96 ce 20 00 	mov    0x20ce96(%rip),%rax        # 21afc0 <_ZSt4endlIcSt11char_traitsIcEERSt13basic_ostreamIT_T0_ES6_@GLIBCXX_3.4>
    e12a:	48 89 c6             	mov    %rax,%rsi
    e12d:	48 89 d7             	mov    %rdx,%rdi
    e130:	e8 7b f5 ff ff       	callq  d6b0 <_ZNSolsEPFRSoS_E@plt>
    e135:	48 8d 85 60 ff ff ff 	lea    -0xa0(%rbp),%rax
    e13c:	48 89 c6             	mov    %rax,%rsi
    e13f:	48 8d 3d 1a d0 20 00 	lea    0x20d01a(%rip),%rdi        # 21b160 <_ZSt3cin@@GLIBCXX_3.4>
    e146:	e8 c5 f5 ff ff       	callq  d710 <_ZStrsIcSt11char_traitsIcESaIcEERSt13basic_istreamIT_T0_ES7_RNSt7__cxx1112basic_stringIS4_S5_T1_EE@plt>
    e14b:	48 8d 35 db 74 00 00 	lea    0x74db(%rip),%rsi        # 1562d <_ZN9__gnu_cxxL21__default_lock_policyE+0x261>
    e152:	48 8d 3d c7 ce 20 00 	lea    0x20cec7(%rip),%rdi        # 21b020 <_ZSt4cout@@GLIBCXX_3.4>
    e159:	e8 02 f5 ff ff       	callq  d660 <_ZStlsISt11char_traitsIcEERSt13basic_ostreamIcT_ES5_PKc@plt>
    e15e:	48 89 c2             	mov    %rax,%rdx
    e161:	48 8b 05 58 ce 20 00 	mov    0x20ce58(%rip),%rax        # 21afc0 <_ZSt4endlIcSt11char_traitsIcEERSt13basic_ostreamIT_T0_ES6_@GLIBCXX_3.4>
    e168:	48 89 c6             	mov    %rax,%rsi
    e16b:	48 89 d7             	mov    %rdx,%rdi
    e16e:	e8 3d f5 ff ff       	callq  d6b0 <_ZNSolsEPFRSoS_E@plt>
    e173:	48 8d 45 80          	lea    -0x80(%rbp),%rax
    e177:	48 89 c6             	mov    %rax,%rsi
    e17a:	48 8d 3d df cf 20 00 	lea    0x20cfdf(%rip),%rdi        # 21b160 <_ZSt3cin@@GLIBCXX_3.4>
    e181:	e8 8a f5 ff ff       	callq  d710 <_ZStrsIcSt11char_traitsIcESaIcEERSt13basic_istreamIT_T0_ES7_RNSt7__cxx1112basic_stringIS4_S5_T1_EE@plt>
    e186:	48 8d 55 80          	lea    -0x80(%rbp),%rdx
    e18a:	48 8d 45 c0          	lea    -0x40(%rbp),%rax
    e18e:	48 89 d6             	mov    %rdx,%rsi
    e191:	48 89 c7             	mov    %rax,%rdi
    e194:	e8 67 f3 ff ff       	callq  d500 <_ZNSt7__cxx1112basic_stringIcSt11char_traitsIcESaIcEEC1ERKS4_@plt>
    e199:	48 8d 95 60 ff ff ff 	lea    -0xa0(%rbp),%rdx
    e1a0:	48 8d 45 a0          	lea    -0x60(%rbp),%rax
    e1a4:	48 89 d6             	mov    %rdx,%rsi
    e1a7:	48 89 c7             	mov    %rax,%rdi
    e1aa:	e8 51 f3 ff ff       	callq  d500 <_ZNSt7__cxx1112basic_stringIcSt11char_traitsIcESaIcEEC1ERKS4_@plt>
    e1af:	48 8d 55 c0          	lea    -0x40(%rbp),%rdx
    e1b3:	48 8d 45 a0          	lea    -0x60(%rbp),%rax
    e1b7:	48 89 d6             	mov    %rdx,%rsi
    e1ba:	48 89 c7             	mov    %rax,%rdi
    e1bd:	e8 aa 05 00 00       	callq  e76c <_Z10voterLoginNSt7__cxx1112basic_stringIcSt11char_traitsIcESaIcEEES4_>
    e1c2:	48 89 85 58 ff ff ff 	mov    %rax,-0xa8(%rbp)
    e1c9:	48 8d 45 a0          	lea    -0x60(%rbp),%rax
    e1cd:	48 89 c7             	mov    %rax,%rdi
    e1d0:	e8 6b f3 ff ff       	callq  d540 <_ZNSt7__cxx1112basic_stringIcSt11char_traitsIcESaIcEED1Ev@plt>
    e1d5:	48 8d 45 c0          	lea    -0x40(%rbp),%rax
    e1d9:	48 89 c7             	mov    %rax,%rdi
    e1dc:	e8 5f f3 ff ff       	callq  d540 <_ZNSt7__cxx1112basic_stringIcSt11char_traitsIcESaIcEED1Ev@plt>
    e1e1:	48 83 bd 58 ff ff ff 	cmpq   $0x0,-0xa8(%rbp)
    e1e8:	00 
    e1e9:	0f 84 c4 00 00 00    	je     e2b3 <_Z14voterFunctionsv+0x24f>
    e1ef:	48 8d 35 47 74 00 00 	lea    0x7447(%rip),%rsi        # 1563d <_ZN9__gnu_cxxL21__default_lock_policyE+0x271>
    e1f6:	48 8d 3d 23 ce 20 00 	lea    0x20ce23(%rip),%rdi        # 21b020 <_ZSt4cout@@GLIBCXX_3.4>
    e1fd:	e8 5e f4 ff ff       	callq  d660 <_ZStlsISt11char_traitsIcEERSt13basic_ostreamIcT_ES5_PKc@plt>
    e202:	48 89 c2             	mov    %rax,%rdx
    e205:	48 8b 05 b4 cd 20 00 	mov    0x20cdb4(%rip),%rax        # 21afc0 <_ZSt4endlIcSt11char_traitsIcEERSt13basic_ostreamIT_T0_ES6_@GLIBCXX_3.4>
    e20c:	48 89 c6             	mov    %rax,%rsi
    e20f:	48 89 d7             	mov    %rdx,%rdi
    e212:	e8 99 f4 ff ff       	callq  d6b0 <_ZNSolsEPFRSoS_E@plt>
    e217:	48 8d 35 32 74 00 00 	lea    0x7432(%rip),%rsi        # 15650 <_ZN9__gnu_cxxL21__default_lock_policyE+0x284>
    e21e:	48 8d 3d fb cd 20 00 	lea    0x20cdfb(%rip),%rdi        # 21b020 <_ZSt4cout@@GLIBCXX_3.4>
    e225:	e8 36 f4 ff ff       	callq  d660 <_ZStlsISt11char_traitsIcEERSt13basic_ostreamIcT_ES5_PKc@plt>
    e22a:	48 89 c2             	mov    %rax,%rdx
    e22d:	48 8b 05 8c cd 20 00 	mov    0x20cd8c(%rip),%rax        # 21afc0 <_ZSt4endlIcSt11char_traitsIcEERSt13basic_ostreamIT_T0_ES6_@GLIBCXX_3.4>
    e234:	48 89 c6             	mov    %rax,%rsi
    e237:	48 89 d7             	mov    %rdx,%rdi
    e23a:	e8 71 f4 ff ff       	callq  d6b0 <_ZNSolsEPFRSoS_E@plt>
    e23f:	48 8d 85 54 ff ff ff 	lea    -0xac(%rbp),%rax
    e246:	48 89 c6             	mov    %rax,%rsi
    e249:	48 8d 3d 10 cf 20 00 	lea    0x20cf10(%rip),%rdi        # 21b160 <_ZSt3cin@@GLIBCXX_3.4>
    e250:	e8 db f2 ff ff       	callq  d530 <_ZNSirsERi@plt>
    e255:	8b 85 54 ff ff ff    	mov    -0xac(%rbp),%eax
    e25b:	83 f8 01             	cmp    $0x1,%eax
    e25e:	74 07                	je     e267 <_Z14voterFunctionsv+0x203>
    e260:	83 f8 02             	cmp    $0x2,%eax
    e263:	74 13                	je     e278 <_Z14voterFunctionsv+0x214>
    e265:	eb 22                	jmp    e289 <_Z14voterFunctionsv+0x225>
    e267:	48 8b 85 58 ff ff ff 	mov    -0xa8(%rbp),%rax
    e26e:	48 89 c7             	mov    %rax,%rdi
    e271:	e8 6a f2 ff ff       	callq  d4e0 <_ZN5Voter4voteEv@plt>
    e276:	eb 65                	jmp    e2dd <_Z14voterFunctionsv+0x279>
    e278:	48 8b 85 58 ff ff ff 	mov    -0xa8(%rbp),%rax
    e27f:	48 89 c7             	mov    %rax,%rdi
    e282:	e8 39 f5 ff ff       	callq  d7c0 <_ZN5Voter19registerAsCandidateEv@plt>
    e287:	eb 54                	jmp    e2dd <_Z14voterFunctionsv+0x279>
    e289:	48 8d 35 f1 73 00 00 	lea    0x73f1(%rip),%rsi        # 15681 <_ZN9__gnu_cxxL21__default_lock_policyE+0x2b5>
    e290:	48 8d 3d 89 cd 20 00 	lea    0x20cd89(%rip),%rdi        # 21b020 <_ZSt4cout@@GLIBCXX_3.4>
    e297:	e8 c4 f3 ff ff       	callq  d660 <_ZStlsISt11char_traitsIcEERSt13basic_ostreamIcT_ES5_PKc@plt>
    e29c:	48 89 c2             	mov    %rax,%rdx
    e29f:	48 8b 05 1a cd 20 00 	mov    0x20cd1a(%rip),%rax        # 21afc0 <_ZSt4endlIcSt11char_traitsIcEERSt13basic_ostreamIT_T0_ES6_@GLIBCXX_3.4>
    e2a6:	48 89 c6             	mov    %rax,%rsi
    e2a9:	48 89 d7             	mov    %rdx,%rdi
    e2ac:	e8 ff f3 ff ff       	callq  d6b0 <_ZNSolsEPFRSoS_E@plt>
    e2b1:	eb 5c                	jmp    e30f <_Z14voterFunctionsv+0x2ab>
    e2b3:	48 8d 35 d6 73 00 00 	lea    0x73d6(%rip),%rsi        # 15690 <_ZN9__gnu_cxxL21__default_lock_policyE+0x2c4>
    e2ba:	48 8d 3d 5f cd 20 00 	lea    0x20cd5f(%rip),%rdi        # 21b020 <_ZSt4cout@@GLIBCXX_3.4>
    e2c1:	e8 9a f3 ff ff       	callq  d660 <_ZStlsISt11char_traitsIcEERSt13basic_ostreamIcT_ES5_PKc@plt>
    e2c6:	48 89 c2             	mov    %rax,%rdx
    e2c9:	48 8b 05 f0 cc 20 00 	mov    0x20ccf0(%rip),%rax        # 21afc0 <_ZSt4endlIcSt11char_traitsIcEERSt13basic_ostreamIT_T0_ES6_@GLIBCXX_3.4>
    e2d0:	48 89 c6             	mov    %rax,%rsi
    e2d3:	48 89 d7             	mov    %rdx,%rdi
    e2d6:	e8 d5 f3 ff ff       	callq  d6b0 <_ZNSolsEPFRSoS_E@plt>
    e2db:	eb 32                	jmp    e30f <_Z14voterFunctionsv+0x2ab>
    e2dd:	eb 30                	jmp    e30f <_Z14voterFunctionsv+0x2ab>
    e2df:	bb 00 00 00 00       	mov    $0x0,%ebx
    e2e4:	eb 2e                	jmp    e314 <_Z14voterFunctionsv+0x2b0>
    e2e6:	48 8d 35 e1 72 00 00 	lea    0x72e1(%rip),%rsi        # 155ce <_ZN9__gnu_cxxL21__default_lock_policyE+0x202>
    e2ed:	48 8d 3d 2c cd 20 00 	lea    0x20cd2c(%rip),%rdi        # 21b020 <_ZSt4cout@@GLIBCXX_3.4>
    e2f4:	e8 67 f3 ff ff       	callq  d660 <_ZStlsISt11char_traitsIcEERSt13basic_ostreamIcT_ES5_PKc@plt>
    e2f9:	48 89 c2             	mov    %rax,%rdx
    e2fc:	48 8b 05 bd cc 20 00 	mov    0x20ccbd(%rip),%rax        # 21afc0 <_ZSt4endlIcSt11char_traitsIcEERSt13basic_ostreamIT_T0_ES6_@GLIBCXX_3.4>
    e303:	48 89 c6             	mov    %rax,%rsi
    e306:	48 89 d7             	mov    %rdx,%rdi
    e309:	e8 a2 f3 ff ff       	callq  d6b0 <_ZNSolsEPFRSoS_E@plt>
    e30e:	90                   	nop
    e30f:	bb 01 00 00 00       	mov    $0x1,%ebx
    e314:	48 8d 45 80          	lea    -0x80(%rbp),%rax
    e318:	48 89 c7             	mov    %rax,%rdi
    e31b:	e8 20 f2 ff ff       	callq  d540 <_ZNSt7__cxx1112basic_stringIcSt11char_traitsIcESaIcEED1Ev@plt>
    e320:	83 fb 01             	cmp    $0x1,%ebx
    e323:	74 07                	je     e32c <_Z14voterFunctionsv+0x2c8>
    e325:	bb 00 00 00 00       	mov    $0x0,%ebx
    e32a:	eb 06                	jmp    e332 <_Z14voterFunctionsv+0x2ce>
    e32c:	90                   	nop
    e32d:	bb 01 00 00 00       	mov    $0x1,%ebx
    e332:	48 8d 85 60 ff ff ff 	lea    -0xa0(%rbp),%rax
    e339:	48 89 c7             	mov    %rax,%rdi
    e33c:	e8 ff f1 ff ff       	callq  d540 <_ZNSt7__cxx1112basic_stringIcSt11char_traitsIcESaIcEED1Ev@plt>
    e341:	83 fb 01             	cmp    $0x1,%ebx
    e344:	90                   	nop
    e345:	48 8b 45 e8          	mov    -0x18(%rbp),%rax
    e349:	64 48 33 04 25 28 00 	xor    %fs:0x28,%rax
    e350:	00 00 
    e352:	74 52                	je     e3a6 <_Z14voterFunctionsv+0x342>
    e354:	eb 4b                	jmp    e3a1 <_Z14voterFunctionsv+0x33d>
    e356:	48 89 c3             	mov    %rax,%rbx
    e359:	48 8d 45 a0          	lea    -0x60(%rbp),%rax
    e35d:	48 89 c7             	mov    %rax,%rdi
    e360:	e8 db f1 ff ff       	callq  d540 <_ZNSt7__cxx1112basic_stringIcSt11char_traitsIcESaIcEED1Ev@plt>
    e365:	eb 03                	jmp    e36a <_Z14voterFunctionsv+0x306>
    e367:	48 89 c3             	mov    %rax,%rbx
    e36a:	48 8d 45 c0          	lea    -0x40(%rbp),%rax
    e36e:	48 89 c7             	mov    %rax,%rdi
    e371:	e8 ca f1 ff ff       	callq  d540 <_ZNSt7__cxx1112basic_stringIcSt11char_traitsIcESaIcEED1Ev@plt>
    e376:	eb 03                	jmp    e37b <_Z14voterFunctionsv+0x317>
    e378:	48 89 c3             	mov    %rax,%rbx
    e37b:	48 8d 45 80          	lea    -0x80(%rbp),%rax
    e37f:	48 89 c7             	mov    %rax,%rdi
    e382:	e8 b9 f1 ff ff       	callq  d540 <_ZNSt7__cxx1112basic_stringIcSt11char_traitsIcESaIcEED1Ev@plt>
    e387:	48 8d 85 60 ff ff ff 	lea    -0xa0(%rbp),%rax
    e38e:	48 89 c7             	mov    %rax,%rdi
    e391:	e8 aa f1 ff ff       	callq  d540 <_ZNSt7__cxx1112basic_stringIcSt11char_traitsIcESaIcEED1Ev@plt>
    e396:	48 89 d8             	mov    %rbx,%rax
    e399:	48 89 c7             	mov    %rax,%rdi
    e39c:	e8 8f f4 ff ff       	callq  d830 <_Unwind_Resume@plt>
    e3a1:	e8 3a f3 ff ff       	callq  d6e0 <__stack_chk_fail@plt>
    e3a6:	48 81 c4 a8 00 00 00 	add    $0xa8,%rsp
    e3ad:	5b                   	pop    %rbx
    e3ae:	5d                   	pop    %rbp
    e3af:	c3                   	retq   

000000000000e3b0 <_Z18candidateFunctionsv>:
    e3b0:	55                   	push   %rbp
    e3b1:	48 89 e5             	mov    %rsp,%rbp
    e3b4:	53                   	push   %rbx
    e3b5:	48 81 ec a8 00 00 00 	sub    $0xa8,%rsp
    e3bc:	64 48 8b 04 25 28 00 	mov    %fs:0x28,%rax
    e3c3:	00 00 
    e3c5:	48 89 45 e8          	mov    %rax,-0x18(%rbp)
    e3c9:	31 c0                	xor    %eax,%eax
    e3cb:	48 8d 85 60 ff ff ff 	lea    -0xa0(%rbp),%rax
    e3d2:	48 89 c7             	mov    %rax,%rdi
    e3d5:	e8 76 f3 ff ff       	callq  d750 <_ZNSt7__cxx1112basic_stringIcSt11char_traitsIcESaIcEEC1Ev@plt>
    e3da:	48 8d 45 80          	lea    -0x80(%rbp),%rax
    e3de:	48 89 c7             	mov    %rax,%rdi
    e3e1:	e8 6a f3 ff ff       	callq  d750 <_ZNSt7__cxx1112basic_stringIcSt11char_traitsIcESaIcEEC1Ev@plt>
    e3e6:	48 8d 35 30 72 00 00 	lea    0x7230(%rip),%rsi        # 1561d <_ZN9__gnu_cxxL21__default_lock_policyE+0x251>
    e3ed:	48 8d 3d 2c cc 20 00 	lea    0x20cc2c(%rip),%rdi        # 21b020 <_ZSt4cout@@GLIBCXX_3.4>
    e3f4:	e8 67 f2 ff ff       	callq  d660 <_ZStlsISt11char_traitsIcEERSt13basic_ostreamIcT_ES5_PKc@plt>
    e3f9:	48 89 c2             	mov    %rax,%rdx
    e3fc:	48 8b 05 bd cb 20 00 	mov    0x20cbbd(%rip),%rax        # 21afc0 <_ZSt4endlIcSt11char_traitsIcEERSt13basic_ostreamIT_T0_ES6_@GLIBCXX_3.4>
    e403:	48 89 c6             	mov    %rax,%rsi
    e406:	48 89 d7             	mov    %rdx,%rdi
    e409:	e8 a2 f2 ff ff       	callq  d6b0 <_ZNSolsEPFRSoS_E@plt>
    e40e:	48 8d 85 60 ff ff ff 	lea    -0xa0(%rbp),%rax
    e415:	48 89 c6             	mov    %rax,%rsi
    e418:	48 8d 3d 41 cd 20 00 	lea    0x20cd41(%rip),%rdi        # 21b160 <_ZSt3cin@@GLIBCXX_3.4>
    e41f:	e8 ec f2 ff ff       	callq  d710 <_ZStrsIcSt11char_traitsIcESaIcEERSt13basic_istreamIT_T0_ES7_RNSt7__cxx1112basic_stringIS4_S5_T1_EE@plt>
    e424:	48 8d 35 02 72 00 00 	lea    0x7202(%rip),%rsi        # 1562d <_ZN9__gnu_cxxL21__default_lock_policyE+0x261>
    e42b:	48 8d 3d ee cb 20 00 	lea    0x20cbee(%rip),%rdi        # 21b020 <_ZSt4cout@@GLIBCXX_3.4>
    e432:	e8 29 f2 ff ff       	callq  d660 <_ZStlsISt11char_traitsIcEERSt13basic_ostreamIcT_ES5_PKc@plt>
    e437:	48 89 c2             	mov    %rax,%rdx
    e43a:	48 8b 05 7f cb 20 00 	mov    0x20cb7f(%rip),%rax        # 21afc0 <_ZSt4endlIcSt11char_traitsIcEERSt13basic_ostreamIT_T0_ES6_@GLIBCXX_3.4>
    e441:	48 89 c6             	mov    %rax,%rsi
    e444:	48 89 d7             	mov    %rdx,%rdi
    e447:	e8 64 f2 ff ff       	callq  d6b0 <_ZNSolsEPFRSoS_E@plt>
    e44c:	48 8d 45 80          	lea    -0x80(%rbp),%rax
    e450:	48 89 c6             	mov    %rax,%rsi
    e453:	48 8d 3d 06 cd 20 00 	lea    0x20cd06(%rip),%rdi        # 21b160 <_ZSt3cin@@GLIBCXX_3.4>
    e45a:	e8 b1 f2 ff ff       	callq  d710 <_ZStrsIcSt11char_traitsIcESaIcEERSt13basic_istreamIT_T0_ES7_RNSt7__cxx1112basic_stringIS4_S5_T1_EE@plt>
    e45f:	48 8d 55 80          	lea    -0x80(%rbp),%rdx
    e463:	48 8d 45 c0          	lea    -0x40(%rbp),%rax
    e467:	48 89 d6             	mov    %rdx,%rsi
    e46a:	48 89 c7             	mov    %rax,%rdi
    e46d:	e8 8e f0 ff ff       	callq  d500 <_ZNSt7__cxx1112basic_stringIcSt11char_traitsIcESaIcEEC1ERKS4_@plt>
    e472:	48 8d 95 60 ff ff ff 	lea    -0xa0(%rbp),%rdx
    e479:	48 8d 45 a0          	lea    -0x60(%rbp),%rax
    e47d:	48 89 d6             	mov    %rdx,%rsi
    e480:	48 89 c7             	mov    %rax,%rdi
    e483:	e8 78 f0 ff ff       	callq  d500 <_ZNSt7__cxx1112basic_stringIcSt11char_traitsIcESaIcEEC1ERKS4_@plt>
    e488:	48 8d 55 c0          	lea    -0x40(%rbp),%rdx
    e48c:	48 8d 45 a0          	lea    -0x60(%rbp),%rax
    e490:	48 89 d6             	mov    %rdx,%rsi
    e493:	48 89 c7             	mov    %rax,%rdi
    e496:	e8 4b 07 00 00       	callq  ebe6 <_Z14candidateLoginNSt7__cxx1112basic_stringIcSt11char_traitsIcESaIcEEES4_>
    e49b:	48 89 85 58 ff ff ff 	mov    %rax,-0xa8(%rbp)
    e4a2:	48 8d 45 a0          	lea    -0x60(%rbp),%rax
    e4a6:	48 89 c7             	mov    %rax,%rdi
    e4a9:	e8 92 f0 ff ff       	callq  d540 <_ZNSt7__cxx1112basic_stringIcSt11char_traitsIcESaIcEED1Ev@plt>
    e4ae:	48 8d 45 c0          	lea    -0x40(%rbp),%rax
    e4b2:	48 89 c7             	mov    %rax,%rdi
    e4b5:	e8 86 f0 ff ff       	callq  d540 <_ZNSt7__cxx1112basic_stringIcSt11char_traitsIcESaIcEED1Ev@plt>
    e4ba:	48 83 bd 58 ff ff ff 	cmpq   $0x0,-0xa8(%rbp)
    e4c1:	00 
    e4c2:	0f 84 0c 02 00 00    	je     e6d4 <_Z18candidateFunctionsv+0x324>
    e4c8:	48 8d 35 d9 71 00 00 	lea    0x71d9(%rip),%rsi        # 156a8 <_ZN9__gnu_cxxL21__default_lock_policyE+0x2dc>
    e4cf:	48 8d 3d 4a cb 20 00 	lea    0x20cb4a(%rip),%rdi        # 21b020 <_ZSt4cout@@GLIBCXX_3.4>
    e4d6:	e8 85 f1 ff ff       	callq  d660 <_ZStlsISt11char_traitsIcEERSt13basic_ostreamIcT_ES5_PKc@plt>
    e4db:	48 89 c2             	mov    %rax,%rdx
    e4de:	48 8b 05 db ca 20 00 	mov    0x20cadb(%rip),%rax        # 21afc0 <_ZSt4endlIcSt11char_traitsIcEERSt13basic_ostreamIT_T0_ES6_@GLIBCXX_3.4>
    e4e5:	48 89 c6             	mov    %rax,%rsi
    e4e8:	48 89 d7             	mov    %rdx,%rdi
    e4eb:	e8 c0 f1 ff ff       	callq  d6b0 <_ZNSolsEPFRSoS_E@plt>
    e4f0:	48 8d 35 e1 71 00 00 	lea    0x71e1(%rip),%rsi        # 156d8 <_ZN9__gnu_cxxL21__default_lock_policyE+0x30c>
    e4f7:	48 8d 3d 22 cb 20 00 	lea    0x20cb22(%rip),%rdi        # 21b020 <_ZSt4cout@@GLIBCXX_3.4>
    e4fe:	e8 5d f1 ff ff       	callq  d660 <_ZStlsISt11char_traitsIcEERSt13basic_ostreamIcT_ES5_PKc@plt>
    e503:	48 89 c2             	mov    %rax,%rdx
    e506:	48 8b 05 b3 ca 20 00 	mov    0x20cab3(%rip),%rax        # 21afc0 <_ZSt4endlIcSt11char_traitsIcEERSt13basic_ostreamIT_T0_ES6_@GLIBCXX_3.4>
    e50d:	48 89 c6             	mov    %rax,%rsi
    e510:	48 89 d7             	mov    %rdx,%rdi
    e513:	e8 98 f1 ff ff       	callq  d6b0 <_ZNSolsEPFRSoS_E@plt>
    e518:	48 8d 35 dd 71 00 00 	lea    0x71dd(%rip),%rsi        # 156fc <_ZN9__gnu_cxxL21__default_lock_policyE+0x330>
    e51f:	48 8d 3d fa ca 20 00 	lea    0x20cafa(%rip),%rdi        # 21b020 <_ZSt4cout@@GLIBCXX_3.4>
    e526:	e8 35 f1 ff ff       	callq  d660 <_ZStlsISt11char_traitsIcEERSt13basic_ostreamIcT_ES5_PKc@plt>
    e52b:	48 89 c2             	mov    %rax,%rdx
    e52e:	48 8b 05 8b ca 20 00 	mov    0x20ca8b(%rip),%rax        # 21afc0 <_ZSt4endlIcSt11char_traitsIcEERSt13basic_ostreamIT_T0_ES6_@GLIBCXX_3.4>
    e535:	48 89 c6             	mov    %rax,%rsi
    e538:	48 89 d7             	mov    %rdx,%rdi
    e53b:	e8 70 f1 ff ff       	callq  d6b0 <_ZNSolsEPFRSoS_E@plt>
    e540:	48 8d 35 c7 71 00 00 	lea    0x71c7(%rip),%rsi        # 1570e <_ZN9__gnu_cxxL21__default_lock_policyE+0x342>
    e547:	48 8d 3d d2 ca 20 00 	lea    0x20cad2(%rip),%rdi        # 21b020 <_ZSt4cout@@GLIBCXX_3.4>
    e54e:	e8 0d f1 ff ff       	callq  d660 <_ZStlsISt11char_traitsIcEERSt13basic_ostreamIcT_ES5_PKc@plt>
    e553:	48 89 c3             	mov    %rax,%rbx
    e556:	48 8b 85 58 ff ff ff 	mov    -0xa8(%rbp),%rax
    e55d:	48 89 c7             	mov    %rax,%rdi
    e560:	e8 5b f0 ff ff       	callq  d5c0 <_ZN9Candidate14getCandidateIdEv@plt>
    e565:	89 c6                	mov    %eax,%esi
    e567:	48 89 df             	mov    %rbx,%rdi
    e56a:	e8 a1 f2 ff ff       	callq  d810 <_ZNSolsEi@plt>
    e56f:	48 89 c2             	mov    %rax,%rdx
    e572:	48 8b 05 47 ca 20 00 	mov    0x20ca47(%rip),%rax        # 21afc0 <_ZSt4endlIcSt11char_traitsIcEERSt13basic_ostreamIT_T0_ES6_@GLIBCXX_3.4>
    e579:	48 89 c6             	mov    %rax,%rsi
    e57c:	48 89 d7             	mov    %rdx,%rdi
    e57f:	e8 2c f1 ff ff       	callq  d6b0 <_ZNSolsEPFRSoS_E@plt>
    e584:	48 8d 35 96 71 00 00 	lea    0x7196(%rip),%rsi        # 15721 <_ZN9__gnu_cxxL21__default_lock_policyE+0x355>
    e58b:	48 8d 3d 8e ca 20 00 	lea    0x20ca8e(%rip),%rdi        # 21b020 <_ZSt4cout@@GLIBCXX_3.4>
    e592:	e8 c9 f0 ff ff       	callq  d660 <_ZStlsISt11char_traitsIcEERSt13basic_ostreamIcT_ES5_PKc@plt>
    e597:	48 89 c3             	mov    %rax,%rbx
    e59a:	48 8b 85 58 ff ff ff 	mov    -0xa8(%rbp),%rax
    e5a1:	48 89 c7             	mov    %rax,%rdi
    e5a4:	e8 f7 ef ff ff       	callq  d5a0 <_ZN9Candidate13getAssemblyIdEv@plt>
    e5a9:	89 c6                	mov    %eax,%esi
    e5ab:	48 89 df             	mov    %rbx,%rdi
    e5ae:	e8 5d f2 ff ff       	callq  d810 <_ZNSolsEi@plt>
    e5b3:	48 89 c2             	mov    %rax,%rdx
    e5b6:	48 8b 05 03 ca 20 00 	mov    0x20ca03(%rip),%rax        # 21afc0 <_ZSt4endlIcSt11char_traitsIcEERSt13basic_ostreamIT_T0_ES6_@GLIBCXX_3.4>
    e5bd:	48 89 c6             	mov    %rax,%rsi
    e5c0:	48 89 d7             	mov    %rdx,%rdi
    e5c3:	e8 e8 f0 ff ff       	callq  d6b0 <_ZNSolsEPFRSoS_E@plt>
    e5c8:	48 8d 35 64 71 00 00 	lea    0x7164(%rip),%rsi        # 15733 <_ZN9__gnu_cxxL21__default_lock_policyE+0x367>
    e5cf:	48 8d 3d 4a ca 20 00 	lea    0x20ca4a(%rip),%rdi        # 21b020 <_ZSt4cout@@GLIBCXX_3.4>
    e5d6:	e8 85 f0 ff ff       	callq  d660 <_ZStlsISt11char_traitsIcEERSt13basic_ostreamIcT_ES5_PKc@plt>
    e5db:	48 89 c3             	mov    %rax,%rbx
    e5de:	48 8b 85 58 ff ff ff 	mov    -0xa8(%rbp),%rax
    e5e5:	48 89 c7             	mov    %rax,%rdi
    e5e8:	e8 93 ee ff ff       	callq  d480 <_ZN9Candidate10getStateIdEv@plt>
    e5ed:	89 c6                	mov    %eax,%esi
    e5ef:	48 89 df             	mov    %rbx,%rdi
    e5f2:	e8 19 f2 ff ff       	callq  d810 <_ZNSolsEi@plt>
    e5f7:	48 89 c2             	mov    %rax,%rdx
    e5fa:	48 8b 05 bf c9 20 00 	mov    0x20c9bf(%rip),%rax        # 21afc0 <_ZSt4endlIcSt11char_traitsIcEERSt13basic_ostreamIT_T0_ES6_@GLIBCXX_3.4>
    e601:	48 89 c6             	mov    %rax,%rsi
    e604:	48 89 d7             	mov    %rdx,%rdi
    e607:	e8 a4 f0 ff ff       	callq  d6b0 <_ZNSolsEPFRSoS_E@plt>
    e60c:	48 8d 35 2f 71 00 00 	lea    0x712f(%rip),%rsi        # 15742 <_ZN9__gnu_cxxL21__default_lock_policyE+0x376>
    e613:	48 8d 3d 06 ca 20 00 	lea    0x20ca06(%rip),%rdi        # 21b020 <_ZSt4cout@@GLIBCXX_3.4>
    e61a:	e8 41 f0 ff ff       	callq  d660 <_ZStlsISt11char_traitsIcEERSt13basic_ostreamIcT_ES5_PKc@plt>
    e61f:	48 89 c3             	mov    %rax,%rbx
    e622:	48 8b 85 58 ff ff ff 	mov    -0xa8(%rbp),%rax
    e629:	48 89 c7             	mov    %rax,%rdi
    e62c:	e8 1f ef ff ff       	callq  d550 <_ZN9Candidate13getElectionIdEv@plt>
    e631:	89 c6                	mov    %eax,%esi
    e633:	48 89 df             	mov    %rbx,%rdi
    e636:	e8 d5 f1 ff ff       	callq  d810 <_ZNSolsEi@plt>
    e63b:	48 89 c2             	mov    %rax,%rdx
    e63e:	48 8b 05 7b c9 20 00 	mov    0x20c97b(%rip),%rax        # 21afc0 <_ZSt4endlIcSt11char_traitsIcEERSt13basic_ostreamIT_T0_ES6_@GLIBCXX_3.4>
    e645:	48 89 c6             	mov    %rax,%rsi
    e648:	48 89 d7             	mov    %rdx,%rdi
    e64b:	e8 60 f0 ff ff       	callq  d6b0 <_ZNSolsEPFRSoS_E@plt>
    e650:	48 8d 35 fd 70 00 00 	lea    0x70fd(%rip),%rsi        # 15754 <_ZN9__gnu_cxxL21__default_lock_policyE+0x388>
    e657:	48 8d 3d c2 c9 20 00 	lea    0x20c9c2(%rip),%rdi        # 21b020 <_ZSt4cout@@GLIBCXX_3.4>
    e65e:	e8 fd ef ff ff       	callq  d660 <_ZStlsISt11char_traitsIcEERSt13basic_ostreamIcT_ES5_PKc@plt>
    e663:	48 89 c3             	mov    %rax,%rbx
    e666:	48 8d 45 c0          	lea    -0x40(%rbp),%rax
    e66a:	48 8b 95 58 ff ff ff 	mov    -0xa8(%rbp),%rdx
    e671:	48 89 d6             	mov    %rdx,%rsi
    e674:	48 89 c7             	mov    %rax,%rdi
    e677:	e8 e4 f1 ff ff       	callq  d860 <_ZN9Candidate12getPartyNameB5cxx11Ev@plt>
    e67c:	48 8d 45 c0          	lea    -0x40(%rbp),%rax
    e680:	48 89 c6             	mov    %rax,%rsi
    e683:	48 89 df             	mov    %rbx,%rdi
    e686:	e8 55 ef ff ff       	callq  d5e0 <_ZStlsIcSt11char_traitsIcESaIcEERSt13basic_ostreamIT_T0_ES7_RKNSt7__cxx1112basic_stringIS4_S5_T1_EE@plt>
    e68b:	48 89 c2             	mov    %rax,%rdx
    e68e:	48 8b 05 2b c9 20 00 	mov    0x20c92b(%rip),%rax        # 21afc0 <_ZSt4endlIcSt11char_traitsIcEERSt13basic_ostreamIT_T0_ES6_@GLIBCXX_3.4>
    e695:	48 89 c6             	mov    %rax,%rsi
    e698:	48 89 d7             	mov    %rdx,%rdi
    e69b:	e8 10 f0 ff ff       	callq  d6b0 <_ZNSolsEPFRSoS_E@plt>
    e6a0:	48 8d 45 c0          	lea    -0x40(%rbp),%rax
    e6a4:	48 89 c7             	mov    %rax,%rdi
    e6a7:	e8 94 ee ff ff       	callq  d540 <_ZNSt7__cxx1112basic_stringIcSt11char_traitsIcESaIcEED1Ev@plt>
    e6ac:	48 8d 35 b5 70 00 00 	lea    0x70b5(%rip),%rsi        # 15768 <_ZN9__gnu_cxxL21__default_lock_policyE+0x39c>
    e6b3:	48 8d 3d 66 c9 20 00 	lea    0x20c966(%rip),%rdi        # 21b020 <_ZSt4cout@@GLIBCXX_3.4>
    e6ba:	e8 a1 ef ff ff       	callq  d660 <_ZStlsISt11char_traitsIcEERSt13basic_ostreamIcT_ES5_PKc@plt>
    e6bf:	48 89 c2             	mov    %rax,%rdx
    e6c2:	48 8b 05 f7 c8 20 00 	mov    0x20c8f7(%rip),%rax        # 21afc0 <_ZSt4endlIcSt11char_traitsIcEERSt13basic_ostreamIT_T0_ES6_@GLIBCXX_3.4>
    e6c9:	48 89 c6             	mov    %rax,%rsi
    e6cc:	48 89 d7             	mov    %rdx,%rdi
    e6cf:	e8 dc ef ff ff       	callq  d6b0 <_ZNSolsEPFRSoS_E@plt>
    e6d4:	48 8d 45 80          	lea    -0x80(%rbp),%rax
    e6d8:	48 89 c7             	mov    %rax,%rdi
    e6db:	e8 60 ee ff ff       	callq  d540 <_ZNSt7__cxx1112basic_stringIcSt11char_traitsIcESaIcEED1Ev@plt>
    e6e0:	48 8d 85 60 ff ff ff 	lea    -0xa0(%rbp),%rax
    e6e7:	48 89 c7             	mov    %rax,%rdi
    e6ea:	e8 51 ee ff ff       	callq  d540 <_ZNSt7__cxx1112basic_stringIcSt11char_traitsIcESaIcEED1Ev@plt>
    e6ef:	90                   	nop
    e6f0:	48 8b 45 e8          	mov    -0x18(%rbp),%rax
    e6f4:	64 48 33 04 25 28 00 	xor    %fs:0x28,%rax
    e6fb:	00 00 
    e6fd:	74 63                	je     e762 <_Z18candidateFunctionsv+0x3b2>
    e6ff:	eb 5c                	jmp    e75d <_Z18candidateFunctionsv+0x3ad>
    e701:	48 89 c3             	mov    %rax,%rbx
    e704:	48 8d 45 a0          	lea    -0x60(%rbp),%rax
    e708:	48 89 c7             	mov    %rax,%rdi
    e70b:	e8 30 ee ff ff       	callq  d540 <_ZNSt7__cxx1112basic_stringIcSt11char_traitsIcESaIcEED1Ev@plt>
    e710:	eb 03                	jmp    e715 <_Z18candidateFunctionsv+0x365>
    e712:	48 89 c3             	mov    %rax,%rbx
    e715:	48 8d 45 c0          	lea    -0x40(%rbp),%rax
    e719:	48 89 c7             	mov    %rax,%rdi
    e71c:	e8 1f ee ff ff       	callq  d540 <_ZNSt7__cxx1112basic_stringIcSt11char_traitsIcESaIcEED1Ev@plt>
    e721:	eb 14                	jmp    e737 <_Z18candidateFunctionsv+0x387>
    e723:	48 89 c3             	mov    %rax,%rbx
    e726:	48 8d 45 c0          	lea    -0x40(%rbp),%rax
    e72a:	48 89 c7             	mov    %rax,%rdi
    e72d:	e8 0e ee ff ff       	callq  d540 <_ZNSt7__cxx1112basic_stringIcSt11char_traitsIcESaIcEED1Ev@plt>
    e732:	eb 03                	jmp    e737 <_Z18candidateFunctionsv+0x387>
    e734:	48 89 c3             	mov    %rax,%rbx
    e737:	48 8d 45 80          	lea    -0x80(%rbp),%rax
    e73b:	48 89 c7             	mov    %rax,%rdi
    e73e:	e8 fd ed ff ff       	callq  d540 <_ZNSt7__cxx1112basic_stringIcSt11char_traitsIcESaIcEED1Ev@plt>
    e743:	48 8d 85 60 ff ff ff 	lea    -0xa0(%rbp),%rax
    e74a:	48 89 c7             	mov    %rax,%rdi
    e74d:	e8 ee ed ff ff       	callq  d540 <_ZNSt7__cxx1112basic_stringIcSt11char_traitsIcESaIcEED1Ev@plt>
    e752:	48 89 d8             	mov    %rbx,%rax
    e755:	48 89 c7             	mov    %rax,%rdi
    e758:	e8 d3 f0 ff ff       	callq  d830 <_Unwind_Resume@plt>
    e75d:	e8 7e ef ff ff       	callq  d6e0 <__stack_chk_fail@plt>
    e762:	48 81 c4 a8 00 00 00 	add    $0xa8,%rsp
    e769:	5b                   	pop    %rbx
    e76a:	5d                   	pop    %rbp
    e76b:	c3                   	retq   

000000000000e76c <_Z10voterLoginNSt7__cxx1112basic_stringIcSt11char_traitsIcESaIcEEES4_>:
    e76c:	55                   	push   %rbp
    e76d:	48 89 e5             	mov    %rsp,%rbp
    e770:	53                   	push   %rbx
    e771:	48 81 ec 68 04 00 00 	sub    $0x468,%rsp
    e778:	48 89 bd 98 fb ff ff 	mov    %rdi,-0x468(%rbp)
    e77f:	48 89 b5 90 fb ff ff 	mov    %rsi,-0x470(%rbp)
    e786:	64 48 8b 04 25 28 00 	mov    %fs:0x28,%rax
    e78d:	00 00 
    e78f:	48 89 45 e8          	mov    %rax,-0x18(%rbp)
    e793:	31 c0                	xor    %eax,%eax
    e795:	48 c7 85 c8 fb ff ff 	movq   $0x0,-0x438(%rbp)
    e79c:	00 00 00 00 
    e7a0:	48 8d 05 68 6c 00 00 	lea    0x6c68(%rip),%rax        # 1540f <_ZN9__gnu_cxxL21__default_lock_policyE+0x43>
    e7a7:	48 89 85 d0 fb ff ff 	mov    %rax,-0x430(%rbp)
    e7ae:	be 08 00 00 00       	mov    $0x8,%esi
    e7b3:	bf 10 00 00 00       	mov    $0x10,%edi
    e7b8:	e8 5c 09 00 00       	callq  f119 <_ZStorSt13_Ios_OpenmodeS_>
    e7bd:	89 c2                	mov    %eax,%edx
    e7bf:	48 8d 85 d0 fc ff ff 	lea    -0x330(%rbp),%rax
    e7c6:	89 d6                	mov    %edx,%esi
    e7c8:	48 89 c7             	mov    %rax,%rdi
    e7cb:	e8 c0 ed ff ff       	callq  d590 <_ZNSt7__cxx1118basic_stringstreamIcSt11char_traitsIcESaIcEEC1ESt13_Ios_Openmode@plt>
    e7d0:	be 08 00 00 00       	mov    $0x8,%esi
    e7d5:	bf 10 00 00 00       	mov    $0x10,%edi
    e7da:	e8 3a 09 00 00       	callq  f119 <_ZStorSt13_Ios_OpenmodeS_>
    e7df:	89 c2                	mov    %eax,%edx
    e7e1:	48 8d 85 60 fe ff ff 	lea    -0x1a0(%rbp),%rax
    e7e8:	89 d6                	mov    %edx,%esi
    e7ea:	48 89 c7             	mov    %rax,%rdi
    e7ed:	e8 9e ed ff ff       	callq  d590 <_ZNSt7__cxx1118basic_stringstreamIcSt11char_traitsIcESaIcEEC1ESt13_Ios_Openmode@plt>
    e7f2:	48 8d 85 10 fc ff ff 	lea    -0x3f0(%rbp),%rax
    e7f9:	48 89 c7             	mov    %rax,%rdi
    e7fc:	e8 4f ef ff ff       	callq  d750 <_ZNSt7__cxx1112basic_stringIcSt11char_traitsIcESaIcEEC1Ev@plt>
    e801:	48 8d 85 30 fc ff ff 	lea    -0x3d0(%rbp),%rax
    e808:	48 89 c7             	mov    %rax,%rdi
    e80b:	e8 40 ef ff ff       	callq  d750 <_ZNSt7__cxx1112basic_stringIcSt11char_traitsIcESaIcEEC1Ev@plt>
    e810:	48 8d 85 60 fe ff ff 	lea    -0x1a0(%rbp),%rax
    e817:	48 83 c0 10          	add    $0x10,%rax
    e81b:	48 8d 35 76 6f 00 00 	lea    0x6f76(%rip),%rsi        # 15798 <_ZN9__gnu_cxxL21__default_lock_policyE+0x3cc>
    e822:	48 89 c7             	mov    %rax,%rdi
    e825:	e8 36 ee ff ff       	callq  d660 <_ZStlsISt11char_traitsIcEERSt13basic_ostreamIcT_ES5_PKc@plt>
    e82a:	48 8d 85 b0 fc ff ff 	lea    -0x350(%rbp),%rax
    e831:	48 8d 95 60 fe ff ff 	lea    -0x1a0(%rbp),%rdx
    e838:	48 89 d6             	mov    %rdx,%rsi
    e83b:	48 89 c7             	mov    %rax,%rdi
    e83e:	e8 0d ee ff ff       	callq  d650 <_ZNKSt7__cxx1118basic_stringstreamIcSt11char_traitsIcESaIcEE3strEv@plt>
    e843:	48 8d 95 b0 fc ff ff 	lea    -0x350(%rbp),%rdx
    e84a:	48 8d 85 10 fc ff ff 	lea    -0x3f0(%rbp),%rax
    e851:	48 89 d6             	mov    %rdx,%rsi
    e854:	48 89 c7             	mov    %rax,%rdi
    e857:	e8 a4 ee ff ff       	callq  d700 <_ZNSt7__cxx1112basic_stringIcSt11char_traitsIcESaIcEEaSEOS4_@plt>
    e85c:	48 8d 85 b0 fc ff ff 	lea    -0x350(%rbp),%rax
    e863:	48 89 c7             	mov    %rax,%rdi
    e866:	e8 d5 ec ff ff       	callq  d540 <_ZNSt7__cxx1112basic_stringIcSt11char_traitsIcESaIcEED1Ev@plt>
    e86b:	48 8d 85 70 fc ff ff 	lea    -0x390(%rbp),%rax
    e872:	48 8b 95 98 fb ff ff 	mov    -0x468(%rbp),%rdx
    e879:	48 8d 35 60 6f 00 00 	lea    0x6f60(%rip),%rsi        # 157e0 <_ZN9__gnu_cxxL21__default_lock_policyE+0x414>
    e880:	48 89 c7             	mov    %rax,%rdi
    e883:	e8 bf 0b 00 00       	callq  f447 <_ZStplIcSt11char_traitsIcESaIcEENSt7__cxx1112basic_stringIT_T0_T1_EEPKS5_RKS8_>
    e888:	48 8d 85 90 fc ff ff 	lea    -0x370(%rbp),%rax
    e88f:	48 8d 8d 70 fc ff ff 	lea    -0x390(%rbp),%rcx
    e896:	48 8d 15 69 6f 00 00 	lea    0x6f69(%rip),%rdx        # 15806 <_ZN9__gnu_cxxL21__default_lock_policyE+0x43a>
    e89d:	48 89 ce             	mov    %rcx,%rsi
    e8a0:	48 89 c7             	mov    %rax,%rdi
    e8a3:	e8 69 0c 00 00       	callq  f511 <_ZStplIcSt11char_traitsIcESaIcEENSt7__cxx1112basic_stringIT_T0_T1_EEOS8_PKS5_>
    e8a8:	48 8d 85 b0 fc ff ff 	lea    -0x350(%rbp),%rax
    e8af:	48 8b 95 90 fb ff ff 	mov    -0x470(%rbp),%rdx
    e8b6:	48 8d 8d 90 fc ff ff 	lea    -0x370(%rbp),%rcx
    e8bd:	48 89 ce             	mov    %rcx,%rsi
    e8c0:	48 89 c7             	mov    %rax,%rdi
    e8c3:	e8 90 0c 00 00       	callq  f558 <_ZStplIcSt11char_traitsIcESaIcEENSt7__cxx1112basic_stringIT_T0_T1_EEOS8_RKS8_>
    e8c8:	48 8d 85 50 fc ff ff 	lea    -0x3b0(%rbp),%rax
    e8cf:	48 8d 8d b0 fc ff ff 	lea    -0x350(%rbp),%rcx
    e8d6:	48 8d 15 3c 6f 00 00 	lea    0x6f3c(%rip),%rdx        # 15819 <_ZN9__gnu_cxxL21__default_lock_policyE+0x44d>
    e8dd:	48 89 ce             	mov    %rcx,%rsi
    e8e0:	48 89 c7             	mov    %rax,%rdi
    e8e3:	e8 29 0c 00 00       	callq  f511 <_ZStplIcSt11char_traitsIcESaIcEENSt7__cxx1112basic_stringIT_T0_T1_EEOS8_PKS5_>
    e8e8:	48 8d 85 b0 fc ff ff 	lea    -0x350(%rbp),%rax
    e8ef:	48 89 c7             	mov    %rax,%rdi
    e8f2:	e8 49 ec ff ff       	callq  d540 <_ZNSt7__cxx1112basic_stringIcSt11char_traitsIcESaIcEED1Ev@plt>
    e8f7:	48 8d 85 90 fc ff ff 	lea    -0x370(%rbp),%rax
    e8fe:	48 89 c7             	mov    %rax,%rdi
    e901:	e8 3a ec ff ff       	callq  d540 <_ZNSt7__cxx1112basic_stringIcSt11char_traitsIcESaIcEED1Ev@plt>
    e906:	48 8d 85 70 fc ff ff 	lea    -0x390(%rbp),%rax
    e90d:	48 89 c7             	mov    %rax,%rdi
    e910:	e8 2b ec ff ff       	callq  d540 <_ZNSt7__cxx1112basic_stringIcSt11char_traitsIcESaIcEED1Ev@plt>
    e915:	48 8d 85 50 fc ff ff 	lea    -0x3b0(%rbp),%rax
    e91c:	48 89 c7             	mov    %rax,%rdi
    e91f:	e8 cc eb ff ff       	callq  d4f0 <_ZNKSt7__cxx1112basic_stringIcSt11char_traitsIcESaIcEE5c_strEv@plt>
    e924:	48 89 85 d8 fb ff ff 	mov    %rax,-0x428(%rbp)
    e92b:	48 8b 05 4e c9 20 00 	mov    0x20c94e(%rip),%rax        # 21b280 <db>
    e932:	48 8d 95 b8 fb ff ff 	lea    -0x448(%rbp),%rdx
    e939:	48 8b b5 d8 fb ff ff 	mov    -0x428(%rbp),%rsi
    e940:	41 b8 00 00 00 00    	mov    $0x0,%r8d
    e946:	48 89 d1             	mov    %rdx,%rcx
    e949:	ba ff ff ff ff       	mov    $0xffffffff,%edx
    e94e:	48 89 c7             	mov    %rax,%rdi
    e951:	e8 da ec ff ff       	callq  d630 <sqlite3_prepare_v2@plt>
    e956:	89 85 b4 fb ff ff    	mov    %eax,-0x44c(%rbp)
    e95c:	83 bd b4 fb ff ff 00 	cmpl   $0x0,-0x44c(%rbp)
    e963:	74 22                	je     e987 <_Z10voterLoginNSt7__cxx1112basic_stringIcSt11char_traitsIcESaIcEEES4_+0x21b>
    e965:	48 8b 05 d4 c7 20 00 	mov    0x20c7d4(%rip),%rax        # 21b140 <stderr@@GLIBC_2.2.5>
    e96c:	48 8b 95 c8 fb ff ff 	mov    -0x438(%rbp),%rdx
    e973:	48 8d 35 f9 6a 00 00 	lea    0x6af9(%rip),%rsi        # 15473 <_ZN9__gnu_cxxL21__default_lock_policyE+0xa7>
    e97a:	48 89 c7             	mov    %rax,%rdi
    e97d:	b8 00 00 00 00       	mov    $0x0,%eax
    e982:	e8 f9 ed ff ff       	callq  d780 <fprintf@plt>
    e987:	48 c7 85 c0 fb ff ff 	movq   $0x0,-0x440(%rbp)
    e98e:	00 00 00 00 
    e992:	48 8b 85 b8 fb ff ff 	mov    -0x448(%rbp),%rax
    e999:	48 89 c7             	mov    %rax,%rdi
    e99c:	e8 bf ed ff ff       	callq  d760 <sqlite3_step@plt>
    e9a1:	89 85 b4 fb ff ff    	mov    %eax,-0x44c(%rbp)
    e9a7:	83 bd b4 fb ff ff 64 	cmpl   $0x64,-0x44c(%rbp)
    e9ae:	0f 94 c0             	sete   %al
    e9b1:	84 c0                	test   %al,%al
    e9b3:	0f 84 ef 00 00 00    	je     eaa8 <_Z10voterLoginNSt7__cxx1112basic_stringIcSt11char_traitsIcESaIcEEES4_+0x33c>
    e9b9:	48 8b 85 b8 fb ff ff 	mov    -0x448(%rbp),%rax
    e9c0:	be 00 00 00 00       	mov    $0x0,%esi
    e9c5:	48 89 c7             	mov    %rax,%rdi
    e9c8:	e8 93 ea ff ff       	callq  d460 <sqlite3_column_int@plt>
    e9cd:	89 85 a8 fb ff ff    	mov    %eax,-0x458(%rbp)
    e9d3:	48 8b 85 b8 fb ff ff 	mov    -0x448(%rbp),%rax
    e9da:	be 03 00 00 00       	mov    $0x3,%esi
    e9df:	48 89 c7             	mov    %rax,%rdi
    e9e2:	e8 79 ea ff ff       	callq  d460 <sqlite3_column_int@plt>
    e9e7:	89 85 ac fb ff ff    	mov    %eax,-0x454(%rbp)
    e9ed:	48 8b 85 b8 fb ff ff 	mov    -0x448(%rbp),%rax
    e9f4:	be 04 00 00 00       	mov    $0x4,%esi
    e9f9:	48 89 c7             	mov    %rax,%rdi
    e9fc:	e8 5f ea ff ff       	callq  d460 <sqlite3_column_int@plt>
    ea01:	89 85 b0 fb ff ff    	mov    %eax,-0x450(%rbp)
    ea07:	48 8d 35 0d 6e 00 00 	lea    0x6e0d(%rip),%rsi        # 1581b <_ZN9__gnu_cxxL21__default_lock_policyE+0x44f>
    ea0e:	48 8d 3d 0b c6 20 00 	lea    0x20c60b(%rip),%rdi        # 21b020 <_ZSt4cout@@GLIBCXX_3.4>
    ea15:	e8 46 ec ff ff       	callq  d660 <_ZStlsISt11char_traitsIcEERSt13basic_ostreamIcT_ES5_PKc@plt>
    ea1a:	48 89 c2             	mov    %rax,%rdx
    ea1d:	8b 85 a8 fb ff ff    	mov    -0x458(%rbp),%eax
    ea23:	89 c6                	mov    %eax,%esi
    ea25:	48 89 d7             	mov    %rdx,%rdi
    ea28:	e8 e3 ed ff ff       	callq  d810 <_ZNSolsEi@plt>
    ea2d:	48 8d 85 b0 fb ff ff 	lea    -0x450(%rbp),%rax
    ea34:	48 89 c6             	mov    %rax,%rsi
    ea37:	48 8d 3d c2 c8 20 00 	lea    0x20c8c2(%rip),%rdi        # 21b300 <e+0x60>
    ea3e:	e8 c3 0b 00 00       	callq  f606 <_ZNSt3mapIiP5StateSt4lessIiESaISt4pairIKiS1_EEEixERS5_>
    ea43:	48 8b 00             	mov    (%rax),%rax
    ea46:	48 8d 50 58          	lea    0x58(%rax),%rdx
    ea4a:	48 8d 85 ac fb ff ff 	lea    -0x454(%rbp),%rax
    ea51:	48 89 c6             	mov    %rax,%rsi
    ea54:	48 89 d7             	mov    %rdx,%rdi
    ea57:	e8 c8 0c 00 00       	callq  f724 <_ZNSt3mapIiP8AssemblySt4lessIiESaISt4pairIKiS1_EEEixERS5_>
    ea5c:	48 8b 10             	mov    (%rax),%rdx
    ea5f:	48 8d 85 e0 fb ff ff 	lea    -0x420(%rbp),%rax
    ea66:	48 89 d6             	mov    %rdx,%rsi
    ea69:	48 89 c7             	mov    %rax,%rdi
    ea6c:	e8 5f ec ff ff       	callq  d6d0 <_ZN8Assembly12getVoterListEv@plt>
    ea71:	48 8d 95 a8 fb ff ff 	lea    -0x458(%rbp),%rdx
    ea78:	48 8d 85 e0 fb ff ff 	lea    -0x420(%rbp),%rax
    ea7f:	48 89 d6             	mov    %rdx,%rsi
    ea82:	48 89 c7             	mov    %rax,%rdi
    ea85:	e8 0e 0e 00 00       	callq  f898 <_ZNSt3mapIiP5VoterSt4lessIiESaISt4pairIKiS1_EEEixERS5_>
    ea8a:	48 8b 00             	mov    (%rax),%rax
    ea8d:	48 89 85 c0 fb ff ff 	mov    %rax,-0x440(%rbp)
    ea94:	48 8d 85 e0 fb ff ff 	lea    -0x420(%rbp),%rax
    ea9b:	48 89 c7             	mov    %rax,%rdi
    ea9e:	e8 b9 07 00 00       	callq  f25c <_ZNSt3mapIiP5VoterSt4lessIiESaISt4pairIKiS1_EEED1Ev>
    eaa3:	e9 ea fe ff ff       	jmpq   e992 <_Z10voterLoginNSt7__cxx1112basic_stringIcSt11char_traitsIcESaIcEEES4_+0x226>
    eaa8:	48 8b 85 b8 fb ff ff 	mov    -0x448(%rbp),%rax
    eaaf:	48 89 c7             	mov    %rax,%rdi
    eab2:	e8 29 ed ff ff       	callq  d7e0 <sqlite3_finalize@plt>
    eab7:	48 8b 9d c0 fb ff ff 	mov    -0x440(%rbp),%rbx
    eabe:	48 8d 85 50 fc ff ff 	lea    -0x3b0(%rbp),%rax
    eac5:	48 89 c7             	mov    %rax,%rdi
    eac8:	e8 73 ea ff ff       	callq  d540 <_ZNSt7__cxx1112basic_stringIcSt11char_traitsIcESaIcEED1Ev@plt>
    eacd:	48 8d 85 30 fc ff ff 	lea    -0x3d0(%rbp),%rax
    ead4:	48 89 c7             	mov    %rax,%rdi
    ead7:	e8 64 ea ff ff       	callq  d540 <_ZNSt7__cxx1112basic_stringIcSt11char_traitsIcESaIcEED1Ev@plt>
    eadc:	48 8d 85 10 fc ff ff 	lea    -0x3f0(%rbp),%rax
    eae3:	48 89 c7             	mov    %rax,%rdi
    eae6:	e8 55 ea ff ff       	callq  d540 <_ZNSt7__cxx1112basic_stringIcSt11char_traitsIcESaIcEED1Ev@plt>
    eaeb:	48 8d 85 60 fe ff ff 	lea    -0x1a0(%rbp),%rax
    eaf2:	48 89 c7             	mov    %rax,%rdi
    eaf5:	e8 86 ea ff ff       	callq  d580 <_ZNSt7__cxx1118basic_stringstreamIcSt11char_traitsIcESaIcEED1Ev@plt>
    eafa:	48 8d 85 d0 fc ff ff 	lea    -0x330(%rbp),%rax
    eb01:	48 89 c7             	mov    %rax,%rdi
    eb04:	e8 77 ea ff ff       	callq  d580 <_ZNSt7__cxx1118basic_stringstreamIcSt11char_traitsIcESaIcEED1Ev@plt>
    eb09:	48 89 d8             	mov    %rbx,%rax
    eb0c:	48 8b 4d e8          	mov    -0x18(%rbp),%rcx
    eb10:	64 48 33 0c 25 28 00 	xor    %fs:0x28,%rcx
    eb17:	00 00 
    eb19:	0f 84 bd 00 00 00    	je     ebdc <_Z10voterLoginNSt7__cxx1112basic_stringIcSt11char_traitsIcESaIcEEES4_+0x470>
    eb1f:	e9 b3 00 00 00       	jmpq   ebd7 <_Z10voterLoginNSt7__cxx1112basic_stringIcSt11char_traitsIcESaIcEEES4_+0x46b>
    eb24:	48 89 c3             	mov    %rax,%rbx
    eb27:	48 8d 85 b0 fc ff ff 	lea    -0x350(%rbp),%rax
    eb2e:	48 89 c7             	mov    %rax,%rdi
    eb31:	e8 0a ea ff ff       	callq  d540 <_ZNSt7__cxx1112basic_stringIcSt11char_traitsIcESaIcEED1Ev@plt>
    eb36:	eb 03                	jmp    eb3b <_Z10voterLoginNSt7__cxx1112basic_stringIcSt11char_traitsIcESaIcEEES4_+0x3cf>
    eb38:	48 89 c3             	mov    %rax,%rbx
    eb3b:	48 8d 85 90 fc ff ff 	lea    -0x370(%rbp),%rax
    eb42:	48 89 c7             	mov    %rax,%rdi
    eb45:	e8 f6 e9 ff ff       	callq  d540 <_ZNSt7__cxx1112basic_stringIcSt11char_traitsIcESaIcEED1Ev@plt>
    eb4a:	eb 03                	jmp    eb4f <_Z10voterLoginNSt7__cxx1112basic_stringIcSt11char_traitsIcESaIcEEES4_+0x3e3>
    eb4c:	48 89 c3             	mov    %rax,%rbx
    eb4f:	48 8d 85 70 fc ff ff 	lea    -0x390(%rbp),%rax
    eb56:	48 89 c7             	mov    %rax,%rdi
    eb59:	e8 e2 e9 ff ff       	callq  d540 <_ZNSt7__cxx1112basic_stringIcSt11char_traitsIcESaIcEED1Ev@plt>
    eb5e:	eb 2b                	jmp    eb8b <_Z10voterLoginNSt7__cxx1112basic_stringIcSt11char_traitsIcESaIcEEES4_+0x41f>
    eb60:	48 89 c3             	mov    %rax,%rbx
    eb63:	48 8d 85 e0 fb ff ff 	lea    -0x420(%rbp),%rax
    eb6a:	48 89 c7             	mov    %rax,%rdi
    eb6d:	e8 ea 06 00 00       	callq  f25c <_ZNSt3mapIiP5VoterSt4lessIiESaISt4pairIKiS1_EEED1Ev>
    eb72:	eb 03                	jmp    eb77 <_Z10voterLoginNSt7__cxx1112basic_stringIcSt11char_traitsIcESaIcEEES4_+0x40b>
    eb74:	48 89 c3             	mov    %rax,%rbx
    eb77:	48 8d 85 50 fc ff ff 	lea    -0x3b0(%rbp),%rax
    eb7e:	48 89 c7             	mov    %rax,%rdi
    eb81:	e8 ba e9 ff ff       	callq  d540 <_ZNSt7__cxx1112basic_stringIcSt11char_traitsIcESaIcEED1Ev@plt>
    eb86:	eb 03                	jmp    eb8b <_Z10voterLoginNSt7__cxx1112basic_stringIcSt11char_traitsIcESaIcEEES4_+0x41f>
    eb88:	48 89 c3             	mov    %rax,%rbx
    eb8b:	48 8d 85 30 fc ff ff 	lea    -0x3d0(%rbp),%rax
    eb92:	48 89 c7             	mov    %rax,%rdi
    eb95:	e8 a6 e9 ff ff       	callq  d540 <_ZNSt7__cxx1112basic_stringIcSt11char_traitsIcESaIcEED1Ev@plt>
    eb9a:	48 8d 85 10 fc ff ff 	lea    -0x3f0(%rbp),%rax
    eba1:	48 89 c7             	mov    %rax,%rdi
    eba4:	e8 97 e9 ff ff       	callq  d540 <_ZNSt7__cxx1112basic_stringIcSt11char_traitsIcESaIcEED1Ev@plt>
    eba9:	48 8d 85 60 fe ff ff 	lea    -0x1a0(%rbp),%rax
    ebb0:	48 89 c7             	mov    %rax,%rdi
    ebb3:	e8 c8 e9 ff ff       	callq  d580 <_ZNSt7__cxx1118basic_stringstreamIcSt11char_traitsIcESaIcEED1Ev@plt>
    ebb8:	eb 03                	jmp    ebbd <_Z10voterLoginNSt7__cxx1112basic_stringIcSt11char_traitsIcESaIcEEES4_+0x451>
    ebba:	48 89 c3             	mov    %rax,%rbx
    ebbd:	48 8d 85 d0 fc ff ff 	lea    -0x330(%rbp),%rax
    ebc4:	48 89 c7             	mov    %rax,%rdi
    ebc7:	e8 b4 e9 ff ff       	callq  d580 <_ZNSt7__cxx1118basic_stringstreamIcSt11char_traitsIcESaIcEED1Ev@plt>
    ebcc:	48 89 d8             	mov    %rbx,%rax
    ebcf:	48 89 c7             	mov    %rax,%rdi
    ebd2:	e8 59 ec ff ff       	callq  d830 <_Unwind_Resume@plt>
    ebd7:	e8 04 eb ff ff       	callq  d6e0 <__stack_chk_fail@plt>
    ebdc:	48 81 c4 68 04 00 00 	add    $0x468,%rsp
    ebe3:	5b                   	pop    %rbx
    ebe4:	5d                   	pop    %rbp
    ebe5:	c3                   	retq   

000000000000ebe6 <_Z14candidateLoginNSt7__cxx1112basic_stringIcSt11char_traitsIcESaIcEEES4_>:
    ebe6:	55                   	push   %rbp
    ebe7:	48 89 e5             	mov    %rsp,%rbp
    ebea:	53                   	push   %rbx
    ebeb:	48 81 ec 68 04 00 00 	sub    $0x468,%rsp
    ebf2:	48 89 bd 98 fb ff ff 	mov    %rdi,-0x468(%rbp)
    ebf9:	48 89 b5 90 fb ff ff 	mov    %rsi,-0x470(%rbp)
    ec00:	64 48 8b 04 25 28 00 	mov    %fs:0x28,%rax
    ec07:	00 00 
    ec09:	48 89 45 e8          	mov    %rax,-0x18(%rbp)
    ec0d:	31 c0                	xor    %eax,%eax
    ec0f:	48 c7 85 c8 fb ff ff 	movq   $0x0,-0x438(%rbp)
    ec16:	00 00 00 00 
    ec1a:	48 8d 05 ee 67 00 00 	lea    0x67ee(%rip),%rax        # 1540f <_ZN9__gnu_cxxL21__default_lock_policyE+0x43>
    ec21:	48 89 85 d0 fb ff ff 	mov    %rax,-0x430(%rbp)
    ec28:	be 08 00 00 00       	mov    $0x8,%esi
    ec2d:	bf 10 00 00 00       	mov    $0x10,%edi
    ec32:	e8 e2 04 00 00       	callq  f119 <_ZStorSt13_Ios_OpenmodeS_>
    ec37:	89 c2                	mov    %eax,%edx
    ec39:	48 8d 85 d0 fc ff ff 	lea    -0x330(%rbp),%rax
    ec40:	89 d6                	mov    %edx,%esi
    ec42:	48 89 c7             	mov    %rax,%rdi
    ec45:	e8 46 e9 ff ff       	callq  d590 <_ZNSt7__cxx1118basic_stringstreamIcSt11char_traitsIcESaIcEEC1ESt13_Ios_Openmode@plt>
    ec4a:	be 08 00 00 00       	mov    $0x8,%esi
    ec4f:	bf 10 00 00 00       	mov    $0x10,%edi
    ec54:	e8 c0 04 00 00       	callq  f119 <_ZStorSt13_Ios_OpenmodeS_>
    ec59:	89 c2                	mov    %eax,%edx
    ec5b:	48 8d 85 60 fe ff ff 	lea    -0x1a0(%rbp),%rax
    ec62:	89 d6                	mov    %edx,%esi
    ec64:	48 89 c7             	mov    %rax,%rdi
    ec67:	e8 24 e9 ff ff       	callq  d590 <_ZNSt7__cxx1118basic_stringstreamIcSt11char_traitsIcESaIcEEC1ESt13_Ios_Openmode@plt>
    ec6c:	48 8d 85 10 fc ff ff 	lea    -0x3f0(%rbp),%rax
    ec73:	48 89 c7             	mov    %rax,%rdi
    ec76:	e8 d5 ea ff ff       	callq  d750 <_ZNSt7__cxx1112basic_stringIcSt11char_traitsIcESaIcEEC1Ev@plt>
    ec7b:	48 8d 85 30 fc ff ff 	lea    -0x3d0(%rbp),%rax
    ec82:	48 89 c7             	mov    %rax,%rdi
    ec85:	e8 c6 ea ff ff       	callq  d750 <_ZNSt7__cxx1112basic_stringIcSt11char_traitsIcESaIcEEC1Ev@plt>
    ec8a:	48 8d 85 70 fc ff ff 	lea    -0x390(%rbp),%rax
    ec91:	48 8b 95 98 fb ff ff 	mov    -0x468(%rbp),%rdx
    ec98:	48 8d 35 99 6b 00 00 	lea    0x6b99(%rip),%rsi        # 15838 <_ZN9__gnu_cxxL21__default_lock_policyE+0x46c>
    ec9f:	48 89 c7             	mov    %rax,%rdi
    eca2:	e8 a0 07 00 00       	callq  f447 <_ZStplIcSt11char_traitsIcESaIcEENSt7__cxx1112basic_stringIT_T0_T1_EEPKS5_RKS8_>
    eca7:	48 8d 85 90 fc ff ff 	lea    -0x370(%rbp),%rax
    ecae:	48 8d 8d 70 fc ff ff 	lea    -0x390(%rbp),%rcx
    ecb5:	48 8d 15 4a 6b 00 00 	lea    0x6b4a(%rip),%rdx        # 15806 <_ZN9__gnu_cxxL21__default_lock_policyE+0x43a>
    ecbc:	48 89 ce             	mov    %rcx,%rsi
    ecbf:	48 89 c7             	mov    %rax,%rdi
    ecc2:	e8 4a 08 00 00       	callq  f511 <_ZStplIcSt11char_traitsIcESaIcEENSt7__cxx1112basic_stringIT_T0_T1_EEOS8_PKS5_>
    ecc7:	48 8d 85 b0 fc ff ff 	lea    -0x350(%rbp),%rax
    ecce:	48 8b 95 90 fb ff ff 	mov    -0x470(%rbp),%rdx
    ecd5:	48 8d 8d 90 fc ff ff 	lea    -0x370(%rbp),%rcx
    ecdc:	48 89 ce             	mov    %rcx,%rsi
    ecdf:	48 89 c7             	mov    %rax,%rdi
    ece2:	e8 71 08 00 00       	callq  f558 <_ZStplIcSt11char_traitsIcESaIcEENSt7__cxx1112basic_stringIT_T0_T1_EEOS8_RKS8_>
    ece7:	48 8d 85 50 fc ff ff 	lea    -0x3b0(%rbp),%rax
    ecee:	48 8d 8d b0 fc ff ff 	lea    -0x350(%rbp),%rcx
    ecf5:	48 8d 15 1d 6b 00 00 	lea    0x6b1d(%rip),%rdx        # 15819 <_ZN9__gnu_cxxL21__default_lock_policyE+0x44d>
    ecfc:	48 89 ce             	mov    %rcx,%rsi
    ecff:	48 89 c7             	mov    %rax,%rdi
    ed02:	e8 0a 08 00 00       	callq  f511 <_ZStplIcSt11char_traitsIcESaIcEENSt7__cxx1112basic_stringIT_T0_T1_EEOS8_PKS5_>
    ed07:	48 8d 85 b0 fc ff ff 	lea    -0x350(%rbp),%rax
    ed0e:	48 89 c7             	mov    %rax,%rdi
    ed11:	e8 2a e8 ff ff       	callq  d540 <_ZNSt7__cxx1112basic_stringIcSt11char_traitsIcESaIcEED1Ev@plt>
    ed16:	48 8d 85 90 fc ff ff 	lea    -0x370(%rbp),%rax
    ed1d:	48 89 c7             	mov    %rax,%rdi
    ed20:	e8 1b e8 ff ff       	callq  d540 <_ZNSt7__cxx1112basic_stringIcSt11char_traitsIcESaIcEED1Ev@plt>
    ed25:	48 8d 85 70 fc ff ff 	lea    -0x390(%rbp),%rax
    ed2c:	48 89 c7             	mov    %rax,%rdi
    ed2f:	e8 0c e8 ff ff       	callq  d540 <_ZNSt7__cxx1112basic_stringIcSt11char_traitsIcESaIcEED1Ev@plt>
    ed34:	48 8d 85 50 fc ff ff 	lea    -0x3b0(%rbp),%rax
    ed3b:	48 89 c7             	mov    %rax,%rdi
    ed3e:	e8 ad e7 ff ff       	callq  d4f0 <_ZNKSt7__cxx1112basic_stringIcSt11char_traitsIcESaIcEE5c_strEv@plt>
    ed43:	48 89 85 d8 fb ff ff 	mov    %rax,-0x428(%rbp)
    ed4a:	48 8b 05 2f c5 20 00 	mov    0x20c52f(%rip),%rax        # 21b280 <db>
    ed51:	48 8d 95 b8 fb ff ff 	lea    -0x448(%rbp),%rdx
    ed58:	48 8b b5 d8 fb ff ff 	mov    -0x428(%rbp),%rsi
    ed5f:	41 b8 00 00 00 00    	mov    $0x0,%r8d
    ed65:	48 89 d1             	mov    %rdx,%rcx
    ed68:	ba ff ff ff ff       	mov    $0xffffffff,%edx
    ed6d:	48 89 c7             	mov    %rax,%rdi
    ed70:	e8 bb e8 ff ff       	callq  d630 <sqlite3_prepare_v2@plt>
    ed75:	89 85 b4 fb ff ff    	mov    %eax,-0x44c(%rbp)
    ed7b:	83 bd b4 fb ff ff 00 	cmpl   $0x0,-0x44c(%rbp)
    ed82:	74 22                	je     eda6 <_Z14candidateLoginNSt7__cxx1112basic_stringIcSt11char_traitsIcESaIcEEES4_+0x1c0>
    ed84:	48 8b 05 b5 c3 20 00 	mov    0x20c3b5(%rip),%rax        # 21b140 <stderr@@GLIBC_2.2.5>
    ed8b:	48 8b 95 c8 fb ff ff 	mov    -0x438(%rbp),%rdx
    ed92:	48 8d 35 da 66 00 00 	lea    0x66da(%rip),%rsi        # 15473 <_ZN9__gnu_cxxL21__default_lock_policyE+0xa7>
    ed99:	48 89 c7             	mov    %rax,%rdi
    ed9c:	b8 00 00 00 00       	mov    $0x0,%eax
    eda1:	e8 da e9 ff ff       	callq  d780 <fprintf@plt>
    eda6:	48 c7 85 c0 fb ff ff 	movq   $0x0,-0x440(%rbp)
    edad:	00 00 00 00 
    edb1:	48 8b 85 b8 fb ff ff 	mov    -0x448(%rbp),%rax
    edb8:	48 89 c7             	mov    %rax,%rdi
    edbb:	e8 a0 e9 ff ff       	callq  d760 <sqlite3_step@plt>
    edc0:	89 85 b4 fb ff ff    	mov    %eax,-0x44c(%rbp)
    edc6:	83 bd b4 fb ff ff 64 	cmpl   $0x64,-0x44c(%rbp)
    edcd:	0f 94 c0             	sete   %al
    edd0:	84 c0                	test   %al,%al
    edd2:	0f 84 f1 00 00 00    	je     eec9 <_Z14candidateLoginNSt7__cxx1112basic_stringIcSt11char_traitsIcESaIcEEES4_+0x2e3>
    edd8:	48 8d 35 83 6a 00 00 	lea    0x6a83(%rip),%rsi        # 15862 <_ZN9__gnu_cxxL21__default_lock_policyE+0x496>
    eddf:	48 8d 3d 3a c2 20 00 	lea    0x20c23a(%rip),%rdi        # 21b020 <_ZSt4cout@@GLIBCXX_3.4>
    ede6:	e8 75 e8 ff ff       	callq  d660 <_ZStlsISt11char_traitsIcEERSt13basic_ostreamIcT_ES5_PKc@plt>
    edeb:	48 89 c2             	mov    %rax,%rdx
    edee:	48 8b 05 cb c1 20 00 	mov    0x20c1cb(%rip),%rax        # 21afc0 <_ZSt4endlIcSt11char_traitsIcEERSt13basic_ostreamIT_T0_ES6_@GLIBCXX_3.4>
    edf5:	48 89 c6             	mov    %rax,%rsi
    edf8:	48 89 d7             	mov    %rdx,%rdi
    edfb:	e8 b0 e8 ff ff       	callq  d6b0 <_ZNSolsEPFRSoS_E@plt>
    ee00:	48 8b 85 b8 fb ff ff 	mov    -0x448(%rbp),%rax
    ee07:	be 00 00 00 00       	mov    $0x0,%esi
    ee0c:	48 89 c7             	mov    %rax,%rdi
    ee0f:	e8 4c e6 ff ff       	callq  d460 <sqlite3_column_int@plt>
    ee14:	89 85 a8 fb ff ff    	mov    %eax,-0x458(%rbp)
    ee1a:	48 8b 85 b8 fb ff ff 	mov    -0x448(%rbp),%rax
    ee21:	be 03 00 00 00       	mov    $0x3,%esi
    ee26:	48 89 c7             	mov    %rax,%rdi
    ee29:	e8 32 e6 ff ff       	callq  d460 <sqlite3_column_int@plt>
    ee2e:	89 85 ac fb ff ff    	mov    %eax,-0x454(%rbp)
    ee34:	48 8b 85 b8 fb ff ff 	mov    -0x448(%rbp),%rax
    ee3b:	be 04 00 00 00       	mov    $0x4,%esi
    ee40:	48 89 c7             	mov    %rax,%rdi
    ee43:	e8 18 e6 ff ff       	callq  d460 <sqlite3_column_int@plt>
    ee48:	89 85 b0 fb ff ff    	mov    %eax,-0x450(%rbp)
    ee4e:	48 8d 85 b0 fb ff ff 	lea    -0x450(%rbp),%rax
    ee55:	48 89 c6             	mov    %rax,%rsi
    ee58:	48 8d 3d a1 c4 20 00 	lea    0x20c4a1(%rip),%rdi        # 21b300 <e+0x60>
    ee5f:	e8 a2 07 00 00       	callq  f606 <_ZNSt3mapIiP5StateSt4lessIiESaISt4pairIKiS1_EEEixERS5_>
    ee64:	48 8b 00             	mov    (%rax),%rax
    ee67:	48 8d 50 58          	lea    0x58(%rax),%rdx
    ee6b:	48 8d 85 ac fb ff ff 	lea    -0x454(%rbp),%rax
    ee72:	48 89 c6             	mov    %rax,%rsi
    ee75:	48 89 d7             	mov    %rdx,%rdi
    ee78:	e8 a7 08 00 00       	callq  f724 <_ZNSt3mapIiP8AssemblySt4lessIiESaISt4pairIKiS1_EEEixERS5_>
    ee7d:	48 8b 10             	mov    (%rax),%rdx
    ee80:	48 8d 85 e0 fb ff ff 	lea    -0x420(%rbp),%rax
    ee87:	48 89 d6             	mov    %rdx,%rsi
    ee8a:	48 89 c7             	mov    %rax,%rdi
    ee8d:	e8 7e e7 ff ff       	callq  d610 <_ZN8Assembly16getCandidateListEv@plt>
    ee92:	48 8d 95 a8 fb ff ff 	lea    -0x458(%rbp),%rdx
    ee99:	48 8d 85 e0 fb ff ff 	lea    -0x420(%rbp),%rax
    eea0:	48 89 d6             	mov    %rdx,%rsi
    eea3:	48 89 c7             	mov    %rax,%rdi
    eea6:	e8 61 0b 00 00       	callq  fa0c <_ZNSt3mapIiP9CandidateSt4lessIiESaISt4pairIKiS1_EEEixERS5_>
    eeab:	48 8b 00             	mov    (%rax),%rax
    eeae:	48 89 85 c0 fb ff ff 	mov    %rax,-0x440(%rbp)
    eeb5:	48 8d 85 e0 fb ff ff 	lea    -0x420(%rbp),%rax
    eebc:	48 89 c7             	mov    %rax,%rdi
    eebf:	e8 b4 03 00 00       	callq  f278 <_ZNSt3mapIiP9CandidateSt4lessIiESaISt4pairIKiS1_EEED1Ev>
    eec4:	e9 e8 fe ff ff       	jmpq   edb1 <_Z14candidateLoginNSt7__cxx1112basic_stringIcSt11char_traitsIcESaIcEEES4_+0x1cb>
    eec9:	48 8b 85 b8 fb ff ff 	mov    -0x448(%rbp),%rax
    eed0:	48 89 c7             	mov    %rax,%rdi
    eed3:	e8 08 e9 ff ff       	callq  d7e0 <sqlite3_finalize@plt>
    eed8:	48 8d 35 90 69 00 00 	lea    0x6990(%rip),%rsi        # 1586f <_ZN9__gnu_cxxL21__default_lock_policyE+0x4a3>
    eedf:	48 8d 3d 3a c1 20 00 	lea    0x20c13a(%rip),%rdi        # 21b020 <_ZSt4cout@@GLIBCXX_3.4>
    eee6:	e8 75 e7 ff ff       	callq  d660 <_ZStlsISt11char_traitsIcEERSt13basic_ostreamIcT_ES5_PKc@plt>
    eeeb:	48 89 c2             	mov    %rax,%rdx
    eeee:	48 8b 05 cb c0 20 00 	mov    0x20c0cb(%rip),%rax        # 21afc0 <_ZSt4endlIcSt11char_traitsIcEERSt13basic_ostreamIT_T0_ES6_@GLIBCXX_3.4>
    eef5:	48 89 c6             	mov    %rax,%rsi
    eef8:	48 89 d7             	mov    %rdx,%rdi
    eefb:	e8 b0 e7 ff ff       	callq  d6b0 <_ZNSolsEPFRSoS_E@plt>
    ef00:	48 8b 9d c0 fb ff ff 	mov    -0x440(%rbp),%rbx
    ef07:	48 8d 85 50 fc ff ff 	lea    -0x3b0(%rbp),%rax
    ef0e:	48 89 c7             	mov    %rax,%rdi
    ef11:	e8 2a e6 ff ff       	callq  d540 <_ZNSt7__cxx1112basic_stringIcSt11char_traitsIcESaIcEED1Ev@plt>
    ef16:	48 8d 85 30 fc ff ff 	lea    -0x3d0(%rbp),%rax
    ef1d:	48 89 c7             	mov    %rax,%rdi
    ef20:	e8 1b e6 ff ff       	callq  d540 <_ZNSt7__cxx1112basic_stringIcSt11char_traitsIcESaIcEED1Ev@plt>
    ef25:	48 8d 85 10 fc ff ff 	lea    -0x3f0(%rbp),%rax
    ef2c:	48 89 c7             	mov    %rax,%rdi
    ef2f:	e8 0c e6 ff ff       	callq  d540 <_ZNSt7__cxx1112basic_stringIcSt11char_traitsIcESaIcEED1Ev@plt>
    ef34:	48 8d 85 60 fe ff ff 	lea    -0x1a0(%rbp),%rax
    ef3b:	48 89 c7             	mov    %rax,%rdi
    ef3e:	e8 3d e6 ff ff       	callq  d580 <_ZNSt7__cxx1118basic_stringstreamIcSt11char_traitsIcESaIcEED1Ev@plt>
    ef43:	48 8d 85 d0 fc ff ff 	lea    -0x330(%rbp),%rax
    ef4a:	48 89 c7             	mov    %rax,%rdi
    ef4d:	e8 2e e6 ff ff       	callq  d580 <_ZNSt7__cxx1118basic_stringstreamIcSt11char_traitsIcESaIcEED1Ev@plt>
    ef52:	48 89 d8             	mov    %rbx,%rax
    ef55:	48 8b 4d e8          	mov    -0x18(%rbp),%rcx
    ef59:	64 48 33 0c 25 28 00 	xor    %fs:0x28,%rcx
    ef60:	00 00 
    ef62:	0f 84 bd 00 00 00    	je     f025 <_Z14candidateLoginNSt7__cxx1112basic_stringIcSt11char_traitsIcESaIcEEES4_+0x43f>
    ef68:	e9 b3 00 00 00       	jmpq   f020 <_Z14candidateLoginNSt7__cxx1112basic_stringIcSt11char_traitsIcESaIcEEES4_+0x43a>
    ef6d:	48 89 c3             	mov    %rax,%rbx
    ef70:	48 8d 85 b0 fc ff ff 	lea    -0x350(%rbp),%rax
    ef77:	48 89 c7             	mov    %rax,%rdi
    ef7a:	e8 c1 e5 ff ff       	callq  d540 <_ZNSt7__cxx1112basic_stringIcSt11char_traitsIcESaIcEED1Ev@plt>
    ef7f:	eb 03                	jmp    ef84 <_Z14candidateLoginNSt7__cxx1112basic_stringIcSt11char_traitsIcESaIcEEES4_+0x39e>
    ef81:	48 89 c3             	mov    %rax,%rbx
    ef84:	48 8d 85 90 fc ff ff 	lea    -0x370(%rbp),%rax
    ef8b:	48 89 c7             	mov    %rax,%rdi
    ef8e:	e8 ad e5 ff ff       	callq  d540 <_ZNSt7__cxx1112basic_stringIcSt11char_traitsIcESaIcEED1Ev@plt>
    ef93:	eb 03                	jmp    ef98 <_Z14candidateLoginNSt7__cxx1112basic_stringIcSt11char_traitsIcESaIcEEES4_+0x3b2>
    ef95:	48 89 c3             	mov    %rax,%rbx
    ef98:	48 8d 85 70 fc ff ff 	lea    -0x390(%rbp),%rax
    ef9f:	48 89 c7             	mov    %rax,%rdi
    efa2:	e8 99 e5 ff ff       	callq  d540 <_ZNSt7__cxx1112basic_stringIcSt11char_traitsIcESaIcEED1Ev@plt>
    efa7:	eb 2b                	jmp    efd4 <_Z14candidateLoginNSt7__cxx1112basic_stringIcSt11char_traitsIcESaIcEEES4_+0x3ee>
    efa9:	48 89 c3             	mov    %rax,%rbx
    efac:	48 8d 85 e0 fb ff ff 	lea    -0x420(%rbp),%rax
    efb3:	48 89 c7             	mov    %rax,%rdi
    efb6:	e8 bd 02 00 00       	callq  f278 <_ZNSt3mapIiP9CandidateSt4lessIiESaISt4pairIKiS1_EEED1Ev>
    efbb:	eb 03                	jmp    efc0 <_Z14candidateLoginNSt7__cxx1112basic_stringIcSt11char_traitsIcESaIcEEES4_+0x3da>
    efbd:	48 89 c3             	mov    %rax,%rbx
    efc0:	48 8d 85 50 fc ff ff 	lea    -0x3b0(%rbp),%rax
    efc7:	48 89 c7             	mov    %rax,%rdi
    efca:	e8 71 e5 ff ff       	callq  d540 <_ZNSt7__cxx1112basic_stringIcSt11char_traitsIcESaIcEED1Ev@plt>
    efcf:	eb 03                	jmp    efd4 <_Z14candidateLoginNSt7__cxx1112basic_stringIcSt11char_traitsIcESaIcEEES4_+0x3ee>
    efd1:	48 89 c3             	mov    %rax,%rbx
    efd4:	48 8d 85 30 fc ff ff 	lea    -0x3d0(%rbp),%rax
    efdb:	48 89 c7             	mov    %rax,%rdi
    efde:	e8 5d e5 ff ff       	callq  d540 <_ZNSt7__cxx1112basic_stringIcSt11char_traitsIcESaIcEED1Ev@plt>
    efe3:	48 8d 85 10 fc ff ff 	lea    -0x3f0(%rbp),%rax
    efea:	48 89 c7             	mov    %rax,%rdi
    efed:	e8 4e e5 ff ff       	callq  d540 <_ZNSt7__cxx1112basic_stringIcSt11char_traitsIcESaIcEED1Ev@plt>
    eff2:	48 8d 85 60 fe ff ff 	lea    -0x1a0(%rbp),%rax
    eff9:	48 89 c7             	mov    %rax,%rdi
    effc:	e8 7f e5 ff ff       	callq  d580 <_ZNSt7__cxx1118basic_stringstreamIcSt11char_traitsIcESaIcEED1Ev@plt>
    f001:	eb 03                	jmp    f006 <_Z14candidateLoginNSt7__cxx1112basic_stringIcSt11char_traitsIcESaIcEEES4_+0x420>
    f003:	48 89 c3             	mov    %rax,%rbx
    f006:	48 8d 85 d0 fc ff ff 	lea    -0x330(%rbp),%rax
    f00d:	48 89 c7             	mov    %rax,%rdi
    f010:	e8 6b e5 ff ff       	callq  d580 <_ZNSt7__cxx1118basic_stringstreamIcSt11char_traitsIcESaIcEED1Ev@plt>
    f015:	48 89 d8             	mov    %rbx,%rax
    f018:	48 89 c7             	mov    %rax,%rdi
    f01b:	e8 10 e8 ff ff       	callq  d830 <_Unwind_Resume@plt>
    f020:	e8 bb e6 ff ff       	callq  d6e0 <__stack_chk_fail@plt>
    f025:	48 81 c4 68 04 00 00 	add    $0x468,%rsp
    f02c:	5b                   	pop    %rbx
    f02d:	5d                   	pop    %rbp
    f02e:	c3                   	retq   

000000000000f02f <_Z41__static_initialization_and_destruction_0ii>:
    f02f:	55                   	push   %rbp
    f030:	48 89 e5             	mov    %rsp,%rbp
    f033:	48 83 ec 10          	sub    $0x10,%rsp
    f037:	89 7d fc             	mov    %edi,-0x4(%rbp)
    f03a:	89 75 f8             	mov    %esi,-0x8(%rbp)
    f03d:	83 7d fc 01          	cmpl   $0x1,-0x4(%rbp)
    f041:	75 71                	jne    f0b4 <_Z41__static_initialization_and_destruction_0ii+0x85>
    f043:	81 7d f8 ff ff 00 00 	cmpl   $0xffff,-0x8(%rbp)
    f04a:	75 68                	jne    f0b4 <_Z41__static_initialization_and_destruction_0ii+0x85>
    f04c:	48 8d 3d dd c2 20 00 	lea    0x20c2dd(%rip),%rdi        # 21b330 <_ZStL8__ioinit>
    f053:	e8 48 e7 ff ff       	callq  d7a0 <_ZNSt8ios_base4InitC1Ev@plt>
    f058:	48 8d 15 a9 bf 20 00 	lea    0x20bfa9(%rip),%rdx        # 21b008 <__dso_handle>
    f05f:	48 8d 35 ca c2 20 00 	lea    0x20c2ca(%rip),%rsi        # 21b330 <_ZStL8__ioinit>
    f066:	48 8b 05 8b bf 20 00 	mov    0x20bf8b(%rip),%rax        # 21aff8 <_ZNSt8ios_base4InitD1Ev@GLIBCXX_3.4>
    f06d:	48 89 c7             	mov    %rax,%rdi
    f070:	e8 5b e5 ff ff       	callq  d5d0 <__cxa_atexit@plt>
    f075:	48 8d 35 04 c2 20 00 	lea    0x20c204(%rip),%rsi        # 21b280 <db>
    f07c:	48 8d 3d 22 68 00 00 	lea    0x6822(%rip),%rdi        # 158a5 <_ZN9__gnu_cxxL21__default_lock_policyE+0x4d9>
    f083:	e8 98 e7 ff ff       	callq  d820 <sqlite3_open@plt>
    f088:	89 05 fa c1 20 00    	mov    %eax,0x20c1fa(%rip)        # 21b288 <rc>
    f08e:	48 8d 3d 0b c2 20 00 	lea    0x20c20b(%rip),%rdi        # 21b2a0 <e>
    f095:	e8 f6 e5 ff ff       	callq  d690 <_ZN17ElectionCommisionC1Ev@plt>
    f09a:	48 8d 15 67 bf 20 00 	lea    0x20bf67(%rip),%rdx        # 21b008 <__dso_handle>
    f0a1:	48 8d 35 f8 c1 20 00 	lea    0x20c1f8(%rip),%rsi        # 21b2a0 <e>
    f0a8:	48 8d 3d e3 5a 00 00 	lea    0x5ae3(%rip),%rdi        # 14b92 <_ZN17ElectionCommisionD1Ev>
    f0af:	e8 1c e5 ff ff       	callq  d5d0 <__cxa_atexit@plt>
    f0b4:	90                   	nop
    f0b5:	c9                   	leaveq 
    f0b6:	c3                   	retq   

000000000000f0b7 <_GLOBAL__sub_I_db>:
    f0b7:	55                   	push   %rbp
    f0b8:	48 89 e5             	mov    %rsp,%rbp
    f0bb:	be ff ff 00 00       	mov    $0xffff,%esi
    f0c0:	bf 01 00 00 00       	mov    $0x1,%edi
    f0c5:	e8 65 ff ff ff       	callq  f02f <_Z41__static_initialization_and_destruction_0ii>
    f0ca:	5d                   	pop    %rbp
    f0cb:	c3                   	retq   

000000000000f0cc <_ZnwmPv>:
    f0cc:	55                   	push   %rbp
    f0cd:	48 89 e5             	mov    %rsp,%rbp
    f0d0:	48 89 7d f8          	mov    %rdi,-0x8(%rbp)
    f0d4:	48 89 75 f0          	mov    %rsi,-0x10(%rbp)
    f0d8:	48 8b 45 f0          	mov    -0x10(%rbp),%rax
    f0dc:	5d                   	pop    %rbp
    f0dd:	c3                   	retq   

000000000000f0de <_ZdlPvS_>:
    f0de:	55                   	push   %rbp
    f0df:	48 89 e5             	mov    %rsp,%rbp
    f0e2:	48 89 7d f8          	mov    %rdi,-0x8(%rbp)
    f0e6:	48 89 75 f0          	mov    %rsi,-0x10(%rbp)
    f0ea:	90                   	nop
    f0eb:	5d                   	pop    %rbp
    f0ec:	c3                   	retq   

000000000000f0ed <_ZNSt11char_traitsIcE6lengthEPKc>:
    f0ed:	55                   	push   %rbp
    f0ee:	48 89 e5             	mov    %rsp,%rbp
    f0f1:	48 89 7d f8          	mov    %rdi,-0x8(%rbp)
    f0f5:	48 8b 45 f8          	mov    -0x8(%rbp),%rax
    f0f9:	48 c7 c1 ff ff ff ff 	mov    $0xffffffffffffffff,%rcx
    f100:	48 89 c2             	mov    %rax,%rdx
    f103:	b8 00 00 00 00       	mov    $0x0,%eax
    f108:	48 89 d7             	mov    %rdx,%rdi
    f10b:	f2 ae                	repnz scas %es:(%rdi),%al
    f10d:	48 89 c8             	mov    %rcx,%rax
    f110:	48 f7 d0             	not    %rax
    f113:	48 83 e8 01          	sub    $0x1,%rax
    f117:	5d                   	pop    %rbp
    f118:	c3                   	retq   

000000000000f119 <_ZStorSt13_Ios_OpenmodeS_>:
    f119:	55                   	push   %rbp
    f11a:	48 89 e5             	mov    %rsp,%rbp
    f11d:	89 7d fc             	mov    %edi,-0x4(%rbp)
    f120:	89 75 f8             	mov    %esi,-0x8(%rbp)
    f123:	8b 45 fc             	mov    -0x4(%rbp),%eax
    f126:	0b 45 f8             	or     -0x8(%rbp),%eax
    f129:	5d                   	pop    %rbp
    f12a:	c3                   	retq   
    f12b:	90                   	nop

000000000000f12c <_ZNSt6thread2idC1Ev>:
    f12c:	55                   	push   %rbp
    f12d:	48 89 e5             	mov    %rsp,%rbp
    f130:	48 89 7d f8          	mov    %rdi,-0x8(%rbp)
    f134:	48 8b 45 f8          	mov    -0x8(%rbp),%rax
    f138:	48 c7 00 00 00 00 00 	movq   $0x0,(%rax)
    f13f:	90                   	nop
    f140:	5d                   	pop    %rbp
    f141:	c3                   	retq   

000000000000f142 <_ZNSt6thread2idC1Em>:
    f142:	55                   	push   %rbp
    f143:	48 89 e5             	mov    %rsp,%rbp
    f146:	48 89 7d f8          	mov    %rdi,-0x8(%rbp)
    f14a:	48 89 75 f0          	mov    %rsi,-0x10(%rbp)
    f14e:	48 8b 45 f8          	mov    -0x8(%rbp),%rax
    f152:	48 8b 55 f0          	mov    -0x10(%rbp),%rdx
    f156:	48 89 10             	mov    %rdx,(%rax)
    f159:	90                   	nop
    f15a:	5d                   	pop    %rbp
    f15b:	c3                   	retq   

000000000000f15c <_ZNSt6threadD1Ev>:
    f15c:	55                   	push   %rbp
    f15d:	48 89 e5             	mov    %rsp,%rbp
    f160:	48 83 ec 10          	sub    $0x10,%rsp
    f164:	48 89 7d f8          	mov    %rdi,-0x8(%rbp)
    f168:	48 8b 45 f8          	mov    -0x8(%rbp),%rax
    f16c:	48 89 c7             	mov    %rax,%rdi
    f16f:	e8 0c 00 00 00       	callq  f180 <_ZNKSt6thread8joinableEv>
    f174:	84 c0                	test   %al,%al
    f176:	74 05                	je     f17d <_ZNSt6threadD1Ev+0x21>
    f178:	e8 23 e3 ff ff       	callq  d4a0 <_ZSt9terminatev@plt>
    f17d:	90                   	nop
    f17e:	c9                   	leaveq 
    f17f:	c3                   	retq   

000000000000f180 <_ZNKSt6thread8joinableEv>:
    f180:	55                   	push   %rbp
    f181:	48 89 e5             	mov    %rsp,%rbp
    f184:	48 83 ec 20          	sub    $0x20,%rsp
    f188:	48 89 7d e8          	mov    %rdi,-0x18(%rbp)
    f18c:	64 48 8b 04 25 28 00 	mov    %fs:0x28,%rax
    f193:	00 00 
    f195:	48 89 45 f8          	mov    %rax,-0x8(%rbp)
    f199:	31 c0                	xor    %eax,%eax
    f19b:	48 8d 45 f0          	lea    -0x10(%rbp),%rax
    f19f:	48 89 c7             	mov    %rax,%rdi
    f1a2:	e8 85 ff ff ff       	callq  f12c <_ZNSt6thread2idC1Ev>
    f1a7:	48 8b 55 f0          	mov    -0x10(%rbp),%rdx
    f1ab:	48 8b 45 e8          	mov    -0x18(%rbp),%rax
    f1af:	48 89 d6             	mov    %rdx,%rsi
    f1b2:	48 8b 38             	mov    (%rax),%rdi
    f1b5:	e8 19 00 00 00       	callq  f1d3 <_ZSteqNSt6thread2idES0_>
    f1ba:	83 f0 01             	xor    $0x1,%eax
    f1bd:	48 8b 4d f8          	mov    -0x8(%rbp),%rcx
    f1c1:	64 48 33 0c 25 28 00 	xor    %fs:0x28,%rcx
    f1c8:	00 00 
    f1ca:	74 05                	je     f1d1 <_ZNKSt6thread8joinableEv+0x51>
    f1cc:	e8 0f e5 ff ff       	callq  d6e0 <__stack_chk_fail@plt>
    f1d1:	c9                   	leaveq 
    f1d2:	c3                   	retq   

000000000000f1d3 <_ZSteqNSt6thread2idES0_>:
    f1d3:	55                   	push   %rbp
    f1d4:	48 89 e5             	mov    %rsp,%rbp
    f1d7:	48 89 7d f8          	mov    %rdi,-0x8(%rbp)
    f1db:	48 89 75 f0          	mov    %rsi,-0x10(%rbp)
    f1df:	48 8b 55 f8          	mov    -0x8(%rbp),%rdx
    f1e3:	48 8b 45 f0          	mov    -0x10(%rbp),%rax
    f1e7:	48 39 c2             	cmp    %rax,%rdx
    f1ea:	0f 94 c0             	sete   %al
    f1ed:	5d                   	pop    %rbp
    f1ee:	c3                   	retq   

000000000000f1ef <_ZNSt11this_thread6get_idEv>:
    f1ef:	55                   	push   %rbp
    f1f0:	48 89 e5             	mov    %rsp,%rbp
    f1f3:	48 83 ec 10          	sub    $0x10,%rsp
    f1f7:	64 48 8b 04 25 28 00 	mov    %fs:0x28,%rax
    f1fe:	00 00 
    f200:	48 89 45 f8          	mov    %rax,-0x8(%rbp)
    f204:	31 c0                	xor    %eax,%eax
    f206:	e8 af e7 ff ff       	callq  d9ba <_ZL18__gthread_active_pv>
    f20b:	85 c0                	test   %eax,%eax
    f20d:	0f 94 c0             	sete   %al
    f210:	84 c0                	test   %al,%al
    f212:	74 17                	je     f22b <_ZNSt11this_thread6get_idEv+0x3c>
    f214:	48 8d 45 f0          	lea    -0x10(%rbp),%rax
    f218:	be 01 00 00 00       	mov    $0x1,%esi
    f21d:	48 89 c7             	mov    %rax,%rdi
    f220:	e8 1d ff ff ff       	callq  f142 <_ZNSt6thread2idC1Em>
    f225:	48 8b 45 f0          	mov    -0x10(%rbp),%rax
    f229:	eb 1b                	jmp    f246 <_ZNSt11this_thread6get_idEv+0x57>
    f22b:	e8 a9 e7 ff ff       	callq  d9d9 <_ZL14__gthread_selfv>
    f230:	48 89 c2             	mov    %rax,%rdx
    f233:	48 8d 45 f0          	lea    -0x10(%rbp),%rax
    f237:	48 89 d6             	mov    %rdx,%rsi
    f23a:	48 89 c7             	mov    %rax,%rdi
    f23d:	e8 00 ff ff ff       	callq  f142 <_ZNSt6thread2idC1Em>
    f242:	48 8b 45 f0          	mov    -0x10(%rbp),%rax
    f246:	48 8b 4d f8          	mov    -0x8(%rbp),%rcx
    f24a:	64 48 33 0c 25 28 00 	xor    %fs:0x28,%rcx
    f251:	00 00 
    f253:	74 05                	je     f25a <_ZNSt11this_thread6get_idEv+0x6b>
    f255:	e8 86 e4 ff ff       	callq  d6e0 <__stack_chk_fail@plt>
    f25a:	c9                   	leaveq 
    f25b:	c3                   	retq   

000000000000f25c <_ZNSt3mapIiP5VoterSt4lessIiESaISt4pairIKiS1_EEED1Ev>:
    f25c:	55                   	push   %rbp
    f25d:	48 89 e5             	mov    %rsp,%rbp
    f260:	48 83 ec 10          	sub    $0x10,%rsp
    f264:	48 89 7d f8          	mov    %rdi,-0x8(%rbp)
    f268:	48 8b 45 f8          	mov    -0x8(%rbp),%rax
    f26c:	48 89 c7             	mov    %rax,%rdi
    f26f:	e8 ea 05 00 00       	callq  f85e <_ZNSt8_Rb_treeIiSt4pairIKiP5VoterESt10_Select1stIS4_ESt4lessIiESaIS4_EED1Ev>
    f274:	90                   	nop
    f275:	c9                   	leaveq 
    f276:	c3                   	retq   
    f277:	90                   	nop

000000000000f278 <_ZNSt3mapIiP9CandidateSt4lessIiESaISt4pairIKiS1_EEED1Ev>:
    f278:	55                   	push   %rbp
    f279:	48 89 e5             	mov    %rsp,%rbp
    f27c:	48 83 ec 10          	sub    $0x10,%rsp
    f280:	48 89 7d f8          	mov    %rdi,-0x8(%rbp)
    f284:	48 8b 45 f8          	mov    -0x8(%rbp),%rax
    f288:	48 89 c7             	mov    %rax,%rdi
    f28b:	e8 42 07 00 00       	callq  f9d2 <_ZNSt8_Rb_treeIiSt4pairIKiP9CandidateESt10_Select1stIS4_ESt4lessIiESaIS4_EED1Ev>
    f290:	90                   	nop
    f291:	c9                   	leaveq 
    f292:	c3                   	retq   

000000000000f293 <_ZStlsIcSt11char_traitsIcEERSt13basic_ostreamIT_T0_ES6_NSt6thread2idE>:
    f293:	55                   	push   %rbp
    f294:	48 89 e5             	mov    %rsp,%rbp
    f297:	48 83 ec 20          	sub    $0x20,%rsp
    f29b:	48 89 7d e8          	mov    %rdi,-0x18(%rbp)
    f29f:	48 89 75 e0          	mov    %rsi,-0x20(%rbp)
    f2a3:	64 48 8b 04 25 28 00 	mov    %fs:0x28,%rax
    f2aa:	00 00 
    f2ac:	48 89 45 f8          	mov    %rax,-0x8(%rbp)
    f2b0:	31 c0                	xor    %eax,%eax
    f2b2:	48 8d 45 f0          	lea    -0x10(%rbp),%rax
    f2b6:	48 89 c7             	mov    %rax,%rdi
    f2b9:	e8 6e fe ff ff       	callq  f12c <_ZNSt6thread2idC1Ev>
    f2be:	48 8b 55 f0          	mov    -0x10(%rbp),%rdx
    f2c2:	48 8b 45 e0          	mov    -0x20(%rbp),%rax
    f2c6:	48 89 d6             	mov    %rdx,%rsi
    f2c9:	48 89 c7             	mov    %rax,%rdi
    f2cc:	e8 02 ff ff ff       	callq  f1d3 <_ZSteqNSt6thread2idES0_>
    f2d1:	84 c0                	test   %al,%al
    f2d3:	74 15                	je     f2ea <_ZStlsIcSt11char_traitsIcEERSt13basic_ostreamIT_T0_ES6_NSt6thread2idE+0x57>
    f2d5:	48 8b 45 e8          	mov    -0x18(%rbp),%rax
    f2d9:	48 8d 35 a0 65 00 00 	lea    0x65a0(%rip),%rsi        # 15880 <_ZN9__gnu_cxxL21__default_lock_policyE+0x4b4>
    f2e0:	48 89 c7             	mov    %rax,%rdi
    f2e3:	e8 78 e3 ff ff       	callq  d660 <_ZStlsISt11char_traitsIcEERSt13basic_ostreamIcT_ES5_PKc@plt>
    f2e8:	eb 13                	jmp    f2fd <_ZStlsIcSt11char_traitsIcEERSt13basic_ostreamIT_T0_ES6_NSt6thread2idE+0x6a>
    f2ea:	48 8b 55 e0          	mov    -0x20(%rbp),%rdx
    f2ee:	48 8b 45 e8          	mov    -0x18(%rbp),%rax
    f2f2:	48 89 d6             	mov    %rdx,%rsi
    f2f5:	48 89 c7             	mov    %rax,%rdi
    f2f8:	e8 93 e1 ff ff       	callq  d490 <_ZNSolsEm@plt>
    f2fd:	48 8b 4d f8          	mov    -0x8(%rbp),%rcx
    f301:	64 48 33 0c 25 28 00 	xor    %fs:0x28,%rcx
    f308:	00 00 
    f30a:	74 05                	je     f311 <_ZStlsIcSt11char_traitsIcEERSt13basic_ostreamIT_T0_ES6_NSt6thread2idE+0x7e>
    f30c:	e8 cf e3 ff ff       	callq  d6e0 <__stack_chk_fail@plt>
    f311:	c9                   	leaveq 
    f312:	c3                   	retq   

000000000000f313 <_ZSt7forwardIRFvvEEOT_RNSt16remove_referenceIS2_E4typeE>:
    f313:	55                   	push   %rbp
    f314:	48 89 e5             	mov    %rsp,%rbp
    f317:	48 89 7d f8          	mov    %rdi,-0x8(%rbp)
    f31b:	48 8b 45 f8          	mov    -0x8(%rbp),%rax
    f31f:	5d                   	pop    %rbp
    f320:	c3                   	retq   

000000000000f321 <_ZSt7forwardIPFvvEEOT_RNSt16remove_referenceIS2_E4typeE>:
    f321:	55                   	push   %rbp
    f322:	48 89 e5             	mov    %rsp,%rbp
    f325:	48 89 7d f8          	mov    %rdi,-0x8(%rbp)
    f329:	48 8b 45 f8          	mov    -0x8(%rbp),%rax
    f32d:	5d                   	pop    %rbp
    f32e:	c3                   	retq   

000000000000f32f <_ZSt8__invokeIPFvvEJEENSt15__invoke_resultIT_JDpT0_EE4typeEOS3_DpOS4_>:
    f32f:	55                   	push   %rbp
    f330:	48 89 e5             	mov    %rsp,%rbp
    f333:	53                   	push   %rbx
    f334:	48 83 ec 28          	sub    $0x28,%rsp
    f338:	48 89 7d d8          	mov    %rdi,-0x28(%rbp)
    f33c:	64 48 8b 04 25 28 00 	mov    %fs:0x28,%rax
    f343:	00 00 
    f345:	48 89 45 e8          	mov    %rax,-0x18(%rbp)
    f349:	31 c0                	xor    %eax,%eax
    f34b:	48 8b 45 d8          	mov    -0x28(%rbp),%rax
    f34f:	48 89 c7             	mov    %rax,%rdi
    f352:	e8 ca ff ff ff       	callq  f321 <_ZSt7forwardIPFvvEEOT_RNSt16remove_referenceIS2_E4typeE>
    f357:	48 83 ec 08          	sub    $0x8,%rsp
    f35b:	53                   	push   %rbx
    f35c:	48 89 c7             	mov    %rax,%rdi
    f35f:	e8 c6 08 00 00       	callq  fc2a <_ZSt13__invoke_implIvPFvvEJEET_St14__invoke_otherOT0_DpOT1_>
    f364:	48 83 c4 10          	add    $0x10,%rsp
    f368:	90                   	nop
    f369:	48 8b 45 e8          	mov    -0x18(%rbp),%rax
    f36d:	64 48 33 04 25 28 00 	xor    %fs:0x28,%rax
    f374:	00 00 
    f376:	74 05                	je     f37d <_ZSt8__invokeIPFvvEJEENSt15__invoke_resultIT_JDpT0_EE4typeEOS3_DpOS4_+0x4e>
    f378:	e8 63 e3 ff ff       	callq  d6e0 <__stack_chk_fail@plt>
    f37d:	48 8b 5d f8          	mov    -0x8(%rbp),%rbx
    f381:	c9                   	leaveq 
    f382:	c3                   	retq   
    f383:	90                   	nop

000000000000f384 <_ZNSt6threadC1IRFvvEJEEEOT_DpOT0_>:
    f384:	55                   	push   %rbp
    f385:	48 89 e5             	mov    %rsp,%rbp
    f388:	53                   	push   %rbx
    f389:	48 83 ec 38          	sub    $0x38,%rsp
    f38d:	48 89 7d c8          	mov    %rdi,-0x38(%rbp)
    f391:	48 89 75 c0          	mov    %rsi,-0x40(%rbp)
    f395:	64 48 8b 04 25 28 00 	mov    %fs:0x28,%rax
    f39c:	00 00 
    f39e:	48 89 45 e8          	mov    %rax,-0x18(%rbp)
    f3a2:	31 c0                	xor    %eax,%eax
    f3a4:	48 8b 45 c8          	mov    -0x38(%rbp),%rax
    f3a8:	48 89 c7             	mov    %rax,%rdi
    f3ab:	e8 7c fd ff ff       	callq  f12c <_ZNSt6thread2idC1Ev>
    f3b0:	48 8b 05 11 bc 20 00 	mov    0x20bc11(%rip),%rax        # 21afc8 <pthread_create@GLIBC_2.2.5>
    f3b7:	48 89 45 e0          	mov    %rax,-0x20(%rbp)
    f3bb:	48 8b 45 c0          	mov    -0x40(%rbp),%rax
    f3bf:	48 89 c7             	mov    %rax,%rdi
    f3c2:	e8 4c ff ff ff       	callq  f313 <_ZSt7forwardIRFvvEEOT_RNSt16remove_referenceIS2_E4typeE>
    f3c7:	48 89 c2             	mov    %rax,%rdx
    f3ca:	48 8d 45 d8          	lea    -0x28(%rbp),%rax
    f3ce:	48 89 d6             	mov    %rdx,%rsi
    f3d1:	48 89 c7             	mov    %rax,%rdi
    f3d4:	e8 ef 07 00 00       	callq  fbc8 <_ZNSt6thread14__make_invokerIRFvvEJEEENS_8_InvokerISt5tupleIJNSt5decayIT_E4typeEDpNS5_IT0_E4typeEEEEEOS6_DpOS9_>
    f3d9:	48 8d 45 d0          	lea    -0x30(%rbp),%rax
    f3dd:	48 8d 55 d8          	lea    -0x28(%rbp),%rdx
    f3e1:	48 89 d6             	mov    %rdx,%rsi
    f3e4:	48 89 c7             	mov    %rax,%rdi
    f3e7:	e8 6c 08 00 00       	callq  fc58 <_ZNSt6thread13_S_make_stateINS_8_InvokerISt5tupleIJPFvvEEEEEEESt10unique_ptrINS_6_StateESt14default_deleteIS8_EEOT_>
    f3ec:	48 8b 55 e0          	mov    -0x20(%rbp),%rdx
    f3f0:	48 8d 4d d0          	lea    -0x30(%rbp),%rcx
    f3f4:	48 8b 45 c8          	mov    -0x38(%rbp),%rax
    f3f8:	48 89 ce             	mov    %rcx,%rsi
    f3fb:	48 89 c7             	mov    %rax,%rdi
    f3fe:	e8 fd e1 ff ff       	callq  d600 <_ZNSt6thread15_M_start_threadESt10unique_ptrINS_6_StateESt14default_deleteIS1_EEPFvvE@plt>
    f403:	48 8d 45 d0          	lea    -0x30(%rbp),%rax
    f407:	48 89 c7             	mov    %rax,%rdi
    f40a:	e8 9f 08 00 00       	callq  fcae <_ZNSt10unique_ptrINSt6thread6_StateESt14default_deleteIS1_EED1Ev>
    f40f:	90                   	nop
    f410:	48 8b 45 e8          	mov    -0x18(%rbp),%rax
    f414:	64 48 33 04 25 28 00 	xor    %fs:0x28,%rax
    f41b:	00 00 
    f41d:	74 21                	je     f440 <_ZNSt6threadC1IRFvvEJEEEOT_DpOT0_+0xbc>
    f41f:	eb 1a                	jmp    f43b <_ZNSt6threadC1IRFvvEJEEEOT_DpOT0_+0xb7>
    f421:	48 89 c3             	mov    %rax,%rbx
    f424:	48 8d 45 d0          	lea    -0x30(%rbp),%rax
    f428:	48 89 c7             	mov    %rax,%rdi
    f42b:	e8 7e 08 00 00       	callq  fcae <_ZNSt10unique_ptrINSt6thread6_StateESt14default_deleteIS1_EED1Ev>
    f430:	48 89 d8             	mov    %rbx,%rax
    f433:	48 89 c7             	mov    %rax,%rdi
    f436:	e8 f5 e3 ff ff       	callq  d830 <_Unwind_Resume@plt>
    f43b:	e8 a0 e2 ff ff       	callq  d6e0 <__stack_chk_fail@plt>
    f440:	48 83 c4 38          	add    $0x38,%rsp
    f444:	5b                   	pop    %rbx
    f445:	5d                   	pop    %rbp
    f446:	c3                   	retq   

000000000000f447 <_ZStplIcSt11char_traitsIcESaIcEENSt7__cxx1112basic_stringIT_T0_T1_EEPKS5_RKS8_>:
    f447:	55                   	push   %rbp
    f448:	48 89 e5             	mov    %rsp,%rbp
    f44b:	53                   	push   %rbx
    f44c:	48 83 ec 38          	sub    $0x38,%rsp
    f450:	48 89 7d d8          	mov    %rdi,-0x28(%rbp)
    f454:	48 89 75 d0          	mov    %rsi,-0x30(%rbp)
    f458:	48 89 55 c8          	mov    %rdx,-0x38(%rbp)
    f45c:	64 48 8b 04 25 28 00 	mov    %fs:0x28,%rax
    f463:	00 00 
    f465:	48 89 45 e8          	mov    %rax,-0x18(%rbp)
    f469:	31 c0                	xor    %eax,%eax
    f46b:	48 8b 45 d0          	mov    -0x30(%rbp),%rax
    f46f:	48 89 c7             	mov    %rax,%rdi
    f472:	e8 76 fc ff ff       	callq  f0ed <_ZNSt11char_traitsIcE6lengthEPKc>
    f477:	48 89 45 e0          	mov    %rax,-0x20(%rbp)
    f47b:	48 8b 45 d8          	mov    -0x28(%rbp),%rax
    f47f:	48 89 c7             	mov    %rax,%rdi
    f482:	e8 c9 e2 ff ff       	callq  d750 <_ZNSt7__cxx1112basic_stringIcSt11char_traitsIcESaIcEEC1Ev@plt>
    f487:	48 8b 45 c8          	mov    -0x38(%rbp),%rax
    f48b:	48 89 c7             	mov    %rax,%rdi
    f48e:	e8 dd e0 ff ff       	callq  d570 <_ZNKSt7__cxx1112basic_stringIcSt11char_traitsIcESaIcEE4sizeEv@plt>
    f493:	48 89 c2             	mov    %rax,%rdx
    f496:	48 8b 45 e0          	mov    -0x20(%rbp),%rax
    f49a:	48 01 c2             	add    %rax,%rdx
    f49d:	48 8b 45 d8          	mov    -0x28(%rbp),%rax
    f4a1:	48 89 d6             	mov    %rdx,%rsi
    f4a4:	48 89 c7             	mov    %rax,%rdi
    f4a7:	e8 04 e3 ff ff       	callq  d7b0 <_ZNSt7__cxx1112basic_stringIcSt11char_traitsIcESaIcEE7reserveEm@plt>
    f4ac:	48 8b 55 e0          	mov    -0x20(%rbp),%rdx
    f4b0:	48 8b 4d d0          	mov    -0x30(%rbp),%rcx
    f4b4:	48 8b 45 d8          	mov    -0x28(%rbp),%rax
    f4b8:	48 89 ce             	mov    %rcx,%rsi
    f4bb:	48 89 c7             	mov    %rax,%rdi
    f4be:	e8 7d df ff ff       	callq  d440 <_ZNSt7__cxx1112basic_stringIcSt11char_traitsIcESaIcEE6appendEPKcm@plt>
    f4c3:	48 8b 55 c8          	mov    -0x38(%rbp),%rdx
    f4c7:	48 8b 45 d8          	mov    -0x28(%rbp),%rax
    f4cb:	48 89 d6             	mov    %rdx,%rsi
    f4ce:	48 89 c7             	mov    %rax,%rdi
    f4d1:	e8 ba e3 ff ff       	callq  d890 <_ZNSt7__cxx1112basic_stringIcSt11char_traitsIcESaIcEE6appendERKS4_@plt>
    f4d6:	eb 1a                	jmp    f4f2 <_ZStplIcSt11char_traitsIcESaIcEENSt7__cxx1112basic_stringIT_T0_T1_EEPKS5_RKS8_+0xab>
    f4d8:	48 89 c3             	mov    %rax,%rbx
    f4db:	48 8b 45 d8          	mov    -0x28(%rbp),%rax
    f4df:	48 89 c7             	mov    %rax,%rdi
    f4e2:	e8 59 e0 ff ff       	callq  d540 <_ZNSt7__cxx1112basic_stringIcSt11char_traitsIcESaIcEED1Ev@plt>
    f4e7:	48 89 d8             	mov    %rbx,%rax
    f4ea:	48 89 c7             	mov    %rax,%rdi
    f4ed:	e8 3e e3 ff ff       	callq  d830 <_Unwind_Resume@plt>
    f4f2:	48 8b 45 d8          	mov    -0x28(%rbp),%rax
    f4f6:	48 8b 4d e8          	mov    -0x18(%rbp),%rcx
    f4fa:	64 48 33 0c 25 28 00 	xor    %fs:0x28,%rcx
    f501:	00 00 
    f503:	74 05                	je     f50a <_ZStplIcSt11char_traitsIcESaIcEENSt7__cxx1112basic_stringIT_T0_T1_EEPKS5_RKS8_+0xc3>
    f505:	e8 d6 e1 ff ff       	callq  d6e0 <__stack_chk_fail@plt>
    f50a:	48 83 c4 38          	add    $0x38,%rsp
    f50e:	5b                   	pop    %rbx
    f50f:	5d                   	pop    %rbp
    f510:	c3                   	retq   

000000000000f511 <_ZStplIcSt11char_traitsIcESaIcEENSt7__cxx1112basic_stringIT_T0_T1_EEOS8_PKS5_>:
    f511:	55                   	push   %rbp
    f512:	48 89 e5             	mov    %rsp,%rbp
    f515:	48 83 ec 20          	sub    $0x20,%rsp
    f519:	48 89 7d f8          	mov    %rdi,-0x8(%rbp)
    f51d:	48 89 75 f0          	mov    %rsi,-0x10(%rbp)
    f521:	48 89 55 e8          	mov    %rdx,-0x18(%rbp)
    f525:	48 8b 55 e8          	mov    -0x18(%rbp),%rdx
    f529:	48 8b 45 f0          	mov    -0x10(%rbp),%rax
    f52d:	48 89 d6             	mov    %rdx,%rsi
    f530:	48 89 c7             	mov    %rax,%rdi
    f533:	e8 38 e3 ff ff       	callq  d870 <_ZNSt7__cxx1112basic_stringIcSt11char_traitsIcESaIcEE6appendEPKc@plt>
    f538:	48 89 c7             	mov    %rax,%rdi
    f53b:	e8 e9 05 00 00       	callq  fb29 <_ZSt4moveIRNSt7__cxx1112basic_stringIcSt11char_traitsIcESaIcEEEEONSt16remove_referenceIT_E4typeEOS8_>
    f540:	48 89 c2             	mov    %rax,%rdx
    f543:	48 8b 45 f8          	mov    -0x8(%rbp),%rax
    f547:	48 89 d6             	mov    %rdx,%rsi
    f54a:	48 89 c7             	mov    %rax,%rdi
    f54d:	e8 ce df ff ff       	callq  d520 <_ZNSt7__cxx1112basic_stringIcSt11char_traitsIcESaIcEEC1EOS4_@plt>
    f552:	48 8b 45 f8          	mov    -0x8(%rbp),%rax
    f556:	c9                   	leaveq 
    f557:	c3                   	retq   

000000000000f558 <_ZStplIcSt11char_traitsIcESaIcEENSt7__cxx1112basic_stringIT_T0_T1_EEOS8_RKS8_>:
    f558:	55                   	push   %rbp
    f559:	48 89 e5             	mov    %rsp,%rbp
    f55c:	48 83 ec 20          	sub    $0x20,%rsp
    f560:	48 89 7d f8          	mov    %rdi,-0x8(%rbp)
    f564:	48 89 75 f0          	mov    %rsi,-0x10(%rbp)
    f568:	48 89 55 e8          	mov    %rdx,-0x18(%rbp)
    f56c:	48 8b 55 e8          	mov    -0x18(%rbp),%rdx
    f570:	48 8b 45 f0          	mov    -0x10(%rbp),%rax
    f574:	48 89 d6             	mov    %rdx,%rsi
    f577:	48 89 c7             	mov    %rax,%rdi
    f57a:	e8 11 e3 ff ff       	callq  d890 <_ZNSt7__cxx1112basic_stringIcSt11char_traitsIcESaIcEE6appendERKS4_@plt>
    f57f:	48 89 c7             	mov    %rax,%rdi
    f582:	e8 a2 05 00 00       	callq  fb29 <_ZSt4moveIRNSt7__cxx1112basic_stringIcSt11char_traitsIcESaIcEEEEONSt16remove_referenceIT_E4typeEOS8_>
    f587:	48 89 c2             	mov    %rax,%rdx
    f58a:	48 8b 45 f8          	mov    -0x8(%rbp),%rax
    f58e:	48 89 d6             	mov    %rdx,%rsi
    f591:	48 89 c7             	mov    %rax,%rdi
    f594:	e8 87 df ff ff       	callq  d520 <_ZNSt7__cxx1112basic_stringIcSt11char_traitsIcESaIcEEC1EOS4_@plt>
    f599:	48 8b 45 f8          	mov    -0x8(%rbp),%rax
    f59d:	c9                   	leaveq 
    f59e:	c3                   	retq   
    f59f:	90                   	nop

000000000000f5a0 <_ZNSt5tupleIJRKiEEC1IvLb1EEES1_>:
    f5a0:	55                   	push   %rbp
    f5a1:	48 89 e5             	mov    %rsp,%rbp
    f5a4:	48 83 ec 10          	sub    $0x10,%rsp
    f5a8:	48 89 7d f8          	mov    %rdi,-0x8(%rbp)
    f5ac:	48 89 75 f0          	mov    %rsi,-0x10(%rbp)
    f5b0:	48 8b 45 f8          	mov    -0x8(%rbp),%rax
    f5b4:	48 8b 55 f0          	mov    -0x10(%rbp),%rdx
    f5b8:	48 89 d6             	mov    %rdx,%rsi
    f5bb:	48 89 c7             	mov    %rax,%rdi
    f5be:	e8 03 00 00 00       	callq  f5c6 <_ZNSt11_Tuple_implILm0EJRKiEEC1ES1_>
    f5c3:	90                   	nop
    f5c4:	c9                   	leaveq 
    f5c5:	c3                   	retq   

000000000000f5c6 <_ZNSt11_Tuple_implILm0EJRKiEEC1ES1_>:
    f5c6:	55                   	push   %rbp
    f5c7:	48 89 e5             	mov    %rsp,%rbp
    f5ca:	48 83 ec 10          	sub    $0x10,%rsp
    f5ce:	48 89 7d f8          	mov    %rdi,-0x8(%rbp)
    f5d2:	48 89 75 f0          	mov    %rsi,-0x10(%rbp)
    f5d6:	48 8b 45 f8          	mov    -0x8(%rbp),%rax
    f5da:	48 8b 55 f0          	mov    -0x10(%rbp),%rdx
    f5de:	48 89 d6             	mov    %rdx,%rsi
    f5e1:	48 89 c7             	mov    %rax,%rdi
    f5e4:	e8 03 00 00 00       	callq  f5ec <_ZNSt10_Head_baseILm0ERKiLb0EEC1ES1_>
    f5e9:	90                   	nop
    f5ea:	c9                   	leaveq 
    f5eb:	c3                   	retq   

000000000000f5ec <_ZNSt10_Head_baseILm0ERKiLb0EEC1ES1_>:
    f5ec:	55                   	push   %rbp
    f5ed:	48 89 e5             	mov    %rsp,%rbp
    f5f0:	48 89 7d f8          	mov    %rdi,-0x8(%rbp)
    f5f4:	48 89 75 f0          	mov    %rsi,-0x10(%rbp)
    f5f8:	48 8b 45 f8          	mov    -0x8(%rbp),%rax
    f5fc:	48 8b 55 f0          	mov    -0x10(%rbp),%rdx
    f600:	48 89 10             	mov    %rdx,(%rax)
    f603:	90                   	nop
    f604:	5d                   	pop    %rbp
    f605:	c3                   	retq   

000000000000f606 <_ZNSt3mapIiP5StateSt4lessIiESaISt4pairIKiS1_EEEixERS5_>:
    f606:	55                   	push   %rbp
    f607:	48 89 e5             	mov    %rsp,%rbp
    f60a:	53                   	push   %rbx
    f60b:	48 83 ec 48          	sub    $0x48,%rsp
    f60f:	48 89 7d b8          	mov    %rdi,-0x48(%rbp)
    f613:	48 89 75 b0          	mov    %rsi,-0x50(%rbp)
    f617:	64 48 8b 04 25 28 00 	mov    %fs:0x28,%rax
    f61e:	00 00 
    f620:	48 89 45 e8          	mov    %rax,-0x18(%rbp)
    f624:	31 c0                	xor    %eax,%eax
    f626:	48 8b 55 b0          	mov    -0x50(%rbp),%rdx
    f62a:	48 8b 45 b8          	mov    -0x48(%rbp),%rax
    f62e:	48 89 d6             	mov    %rdx,%rsi
    f631:	48 89 c7             	mov    %rax,%rdi
    f634:	e8 cd 06 00 00       	callq  fd06 <_ZNSt3mapIiP5StateSt4lessIiESaISt4pairIKiS1_EEE11lower_boundERS5_>
    f639:	48 89 45 d0          	mov    %rax,-0x30(%rbp)
    f63d:	48 8b 45 b8          	mov    -0x48(%rbp),%rax
    f641:	48 89 c7             	mov    %rax,%rdi
    f644:	e8 e3 06 00 00       	callq  fd2c <_ZNSt3mapIiP5StateSt4lessIiESaISt4pairIKiS1_EEE3endEv>
    f649:	48 89 45 e0          	mov    %rax,-0x20(%rbp)
    f64d:	48 8d 55 e0          	lea    -0x20(%rbp),%rdx
    f651:	48 8d 45 d0          	lea    -0x30(%rbp),%rax
    f655:	48 89 d6             	mov    %rdx,%rsi
    f658:	48 89 c7             	mov    %rax,%rdi
    f65b:	e8 e6 06 00 00       	callq  fd46 <_ZNKSt17_Rb_tree_iteratorISt4pairIKiP5StateEEeqERKS5_>
    f660:	84 c0                	test   %al,%al
    f662:	75 32                	jne    f696 <_ZNSt3mapIiP5StateSt4lessIiESaISt4pairIKiS1_EEEixERS5_+0x90>
    f664:	48 8b 45 b8          	mov    -0x48(%rbp),%rax
    f668:	48 89 c7             	mov    %rax,%rdi
    f66b:	e8 f8 06 00 00       	callq  fd68 <_ZNKSt3mapIiP5StateSt4lessIiESaISt4pairIKiS1_EEE8key_compEv>
    f670:	48 8d 45 d0          	lea    -0x30(%rbp),%rax
    f674:	48 89 c7             	mov    %rax,%rdi
    f677:	e8 0e 07 00 00       	callq  fd8a <_ZNKSt17_Rb_tree_iteratorISt4pairIKiP5StateEEdeEv>
    f67c:	48 89 c2             	mov    %rax,%rdx
    f67f:	48 8b 4d b0          	mov    -0x50(%rbp),%rcx
    f683:	48 8d 45 d8          	lea    -0x28(%rbp),%rax
    f687:	48 89 ce             	mov    %rcx,%rsi
    f68a:	48 89 c7             	mov    %rax,%rdi
    f68d:	e8 16 07 00 00       	callq  fda8 <_ZNKSt4lessIiEclERKiS2_>
    f692:	84 c0                	test   %al,%al
    f694:	74 07                	je     f69d <_ZNSt3mapIiP5StateSt4lessIiESaISt4pairIKiS1_EEEixERS5_+0x97>
    f696:	b8 01 00 00 00       	mov    $0x1,%eax
    f69b:	eb 05                	jmp    f6a2 <_ZNSt3mapIiP5StateSt4lessIiESaISt4pairIKiS1_EEEixERS5_+0x9c>
    f69d:	b8 00 00 00 00       	mov    $0x0,%eax
    f6a2:	84 c0                	test   %al,%al
    f6a4:	74 52                	je     f6f8 <_ZNSt3mapIiP5StateSt4lessIiESaISt4pairIKiS1_EEEixERS5_+0xf2>
    f6a6:	48 8b 5d b8          	mov    -0x48(%rbp),%rbx
    f6aa:	48 8b 55 b0          	mov    -0x50(%rbp),%rdx
    f6ae:	48 8d 45 d8          	lea    -0x28(%rbp),%rax
    f6b2:	48 89 d6             	mov    %rdx,%rsi
    f6b5:	48 89 c7             	mov    %rax,%rdi
    f6b8:	e8 e3 fe ff ff       	callq  f5a0 <_ZNSt5tupleIJRKiEEC1IvLb1EEES1_>
    f6bd:	48 8d 55 d0          	lea    -0x30(%rbp),%rdx
    f6c1:	48 8d 45 e0          	lea    -0x20(%rbp),%rax
    f6c5:	48 89 d6             	mov    %rdx,%rsi
    f6c8:	48 89 c7             	mov    %rax,%rdi
    f6cb:	e8 fc 06 00 00       	callq  fdcc <_ZNSt23_Rb_tree_const_iteratorISt4pairIKiP5StateEEC1ERKSt17_Rb_tree_iteratorIS4_E>
    f6d0:	48 8d 4d cf          	lea    -0x31(%rbp),%rcx
    f6d4:	48 8d 55 d8          	lea    -0x28(%rbp),%rdx
    f6d8:	48 8b 45 e0          	mov    -0x20(%rbp),%rax
    f6dc:	49 89 c8             	mov    %rcx,%r8
    f6df:	48 89 d1             	mov    %rdx,%rcx
    f6e2:	48 8d 15 df 5c 00 00 	lea    0x5cdf(%rip),%rdx        # 153c8 <_ZStL19piecewise_construct>
    f6e9:	48 89 c6             	mov    %rax,%rsi
    f6ec:	48 89 df             	mov    %rbx,%rdi
    f6ef:	e8 20 07 00 00       	callq  fe14 <_ZNSt8_Rb_treeIiSt4pairIKiP5StateESt10_Select1stIS4_ESt4lessIiESaIS4_EE22_M_emplace_hint_uniqueIJRKSt21piecewise_construct_tSt5tupleIJRS1_EESF_IJEEEEESt17_Rb_tree_iteratorIS4_ESt23_Rb_tree_const_iteratorIS4_EDpOT_>
    f6f4:	48 89 45 d0          	mov    %rax,-0x30(%rbp)
    f6f8:	48 8d 45 d0          	lea    -0x30(%rbp),%rax
    f6fc:	48 89 c7             	mov    %rax,%rdi
    f6ff:	e8 86 06 00 00       	callq  fd8a <_ZNKSt17_Rb_tree_iteratorISt4pairIKiP5StateEEdeEv>
    f704:	48 83 c0 08          	add    $0x8,%rax
    f708:	48 8b 5d e8          	mov    -0x18(%rbp),%rbx
    f70c:	64 48 33 1c 25 28 00 	xor    %fs:0x28,%rbx
    f713:	00 00 
    f715:	74 05                	je     f71c <_ZNSt3mapIiP5StateSt4lessIiESaISt4pairIKiS1_EEEixERS5_+0x116>
    f717:	e8 c4 df ff ff       	callq  d6e0 <__stack_chk_fail@plt>
    f71c:	48 83 c4 48          	add    $0x48,%rsp
    f720:	5b                   	pop    %rbx
    f721:	5d                   	pop    %rbp
    f722:	c3                   	retq   
    f723:	90                   	nop

000000000000f724 <_ZNSt3mapIiP8AssemblySt4lessIiESaISt4pairIKiS1_EEEixERS5_>:
    f724:	55                   	push   %rbp
    f725:	48 89 e5             	mov    %rsp,%rbp
    f728:	53                   	push   %rbx
    f729:	48 83 ec 48          	sub    $0x48,%rsp
    f72d:	48 89 7d b8          	mov    %rdi,-0x48(%rbp)
    f731:	48 89 75 b0          	mov    %rsi,-0x50(%rbp)
    f735:	64 48 8b 04 25 28 00 	mov    %fs:0x28,%rax
    f73c:	00 00 
    f73e:	48 89 45 e8          	mov    %rax,-0x18(%rbp)
    f742:	31 c0                	xor    %eax,%eax
    f744:	48 8b 55 b0          	mov    -0x50(%rbp),%rdx
    f748:	48 8b 45 b8          	mov    -0x48(%rbp),%rax
    f74c:	48 89 d6             	mov    %rdx,%rsi
    f74f:	48 89 c7             	mov    %rax,%rdi
    f752:	e8 f7 07 00 00       	callq  ff4e <_ZNSt3mapIiP8AssemblySt4lessIiESaISt4pairIKiS1_EEE11lower_boundERS5_>
    f757:	48 89 45 d0          	mov    %rax,-0x30(%rbp)
    f75b:	48 8b 45 b8          	mov    -0x48(%rbp),%rax
    f75f:	48 89 c7             	mov    %rax,%rdi
    f762:	e8 0d 08 00 00       	callq  ff74 <_ZNSt3mapIiP8AssemblySt4lessIiESaISt4pairIKiS1_EEE3endEv>
    f767:	48 89 45 e0          	mov    %rax,-0x20(%rbp)
    f76b:	48 8d 55 e0          	lea    -0x20(%rbp),%rdx
    f76f:	48 8d 45 d0          	lea    -0x30(%rbp),%rax
    f773:	48 89 d6             	mov    %rdx,%rsi
    f776:	48 89 c7             	mov    %rax,%rdi
    f779:	e8 10 08 00 00       	callq  ff8e <_ZNKSt17_Rb_tree_iteratorISt4pairIKiP8AssemblyEEeqERKS5_>
    f77e:	84 c0                	test   %al,%al
    f780:	75 32                	jne    f7b4 <_ZNSt3mapIiP8AssemblySt4lessIiESaISt4pairIKiS1_EEEixERS5_+0x90>
    f782:	48 8b 45 b8          	mov    -0x48(%rbp),%rax
    f786:	48 89 c7             	mov    %rax,%rdi
    f789:	e8 22 08 00 00       	callq  ffb0 <_ZNKSt3mapIiP8AssemblySt4lessIiESaISt4pairIKiS1_EEE8key_compEv>
    f78e:	48 8d 45 d0          	lea    -0x30(%rbp),%rax
    f792:	48 89 c7             	mov    %rax,%rdi
    f795:	e8 38 08 00 00       	callq  ffd2 <_ZNKSt17_Rb_tree_iteratorISt4pairIKiP8AssemblyEEdeEv>
    f79a:	48 89 c2             	mov    %rax,%rdx
    f79d:	48 8b 4d b0          	mov    -0x50(%rbp),%rcx
    f7a1:	48 8d 45 d8          	lea    -0x28(%rbp),%rax
    f7a5:	48 89 ce             	mov    %rcx,%rsi
    f7a8:	48 89 c7             	mov    %rax,%rdi
    f7ab:	e8 f8 05 00 00       	callq  fda8 <_ZNKSt4lessIiEclERKiS2_>
    f7b0:	84 c0                	test   %al,%al
    f7b2:	74 07                	je     f7bb <_ZNSt3mapIiP8AssemblySt4lessIiESaISt4pairIKiS1_EEEixERS5_+0x97>
    f7b4:	b8 01 00 00 00       	mov    $0x1,%eax
    f7b9:	eb 05                	jmp    f7c0 <_ZNSt3mapIiP8AssemblySt4lessIiESaISt4pairIKiS1_EEEixERS5_+0x9c>
    f7bb:	b8 00 00 00 00       	mov    $0x0,%eax
    f7c0:	84 c0                	test   %al,%al
    f7c2:	74 52                	je     f816 <_ZNSt3mapIiP8AssemblySt4lessIiESaISt4pairIKiS1_EEEixERS5_+0xf2>
    f7c4:	48 8b 5d b8          	mov    -0x48(%rbp),%rbx
    f7c8:	48 8b 55 b0          	mov    -0x50(%rbp),%rdx
    f7cc:	48 8d 45 d8          	lea    -0x28(%rbp),%rax
    f7d0:	48 89 d6             	mov    %rdx,%rsi
    f7d3:	48 89 c7             	mov    %rax,%rdi
    f7d6:	e8 c5 fd ff ff       	callq  f5a0 <_ZNSt5tupleIJRKiEEC1IvLb1EEES1_>
    f7db:	48 8d 55 d0          	lea    -0x30(%rbp),%rdx
    f7df:	48 8d 45 e0          	lea    -0x20(%rbp),%rax
    f7e3:	48 89 d6             	mov    %rdx,%rsi
    f7e6:	48 89 c7             	mov    %rax,%rdi
    f7e9:	e8 02 08 00 00       	callq  fff0 <_ZNSt23_Rb_tree_const_iteratorISt4pairIKiP8AssemblyEEC1ERKSt17_Rb_tree_iteratorIS4_E>
    f7ee:	48 8d 4d cf          	lea    -0x31(%rbp),%rcx
    f7f2:	48 8d 55 d8          	lea    -0x28(%rbp),%rdx
    f7f6:	48 8b 45 e0          	mov    -0x20(%rbp),%rax
    f7fa:	49 89 c8             	mov    %rcx,%r8
    f7fd:	48 89 d1             	mov    %rdx,%rcx
    f800:	48 8d 15 c1 5b 00 00 	lea    0x5bc1(%rip),%rdx        # 153c8 <_ZStL19piecewise_construct>
    f807:	48 89 c6             	mov    %rax,%rsi
    f80a:	48 89 df             	mov    %rbx,%rdi
    f80d:	e8 fc 07 00 00       	callq  1000e <_ZNSt8_Rb_treeIiSt4pairIKiP8AssemblyESt10_Select1stIS4_ESt4lessIiESaIS4_EE22_M_emplace_hint_uniqueIJRKSt21piecewise_construct_tSt5tupleIJRS1_EESF_IJEEEEESt17_Rb_tree_iteratorIS4_ESt23_Rb_tree_const_iteratorIS4_EDpOT_>
    f812:	48 89 45 d0          	mov    %rax,-0x30(%rbp)
    f816:	48 8d 45 d0          	lea    -0x30(%rbp),%rax
    f81a:	48 89 c7             	mov    %rax,%rdi
    f81d:	e8 b0 07 00 00       	callq  ffd2 <_ZNKSt17_Rb_tree_iteratorISt4pairIKiP8AssemblyEEdeEv>
    f822:	48 83 c0 08          	add    $0x8,%rax
    f826:	48 8b 5d e8          	mov    -0x18(%rbp),%rbx
    f82a:	64 48 33 1c 25 28 00 	xor    %fs:0x28,%rbx
    f831:	00 00 
    f833:	74 05                	je     f83a <_ZNSt3mapIiP8AssemblySt4lessIiESaISt4pairIKiS1_EEEixERS5_+0x116>
    f835:	e8 a6 de ff ff       	callq  d6e0 <__stack_chk_fail@plt>
    f83a:	48 83 c4 48          	add    $0x48,%rsp
    f83e:	5b                   	pop    %rbx
    f83f:	5d                   	pop    %rbp
    f840:	c3                   	retq   
    f841:	90                   	nop

000000000000f842 <_ZNSt8_Rb_treeIiSt4pairIKiP5VoterESt10_Select1stIS4_ESt4lessIiESaIS4_EE13_Rb_tree_implIS8_Lb1EED1Ev>:
    f842:	55                   	push   %rbp
    f843:	48 89 e5             	mov    %rsp,%rbp
    f846:	48 83 ec 10          	sub    $0x10,%rsp
    f84a:	48 89 7d f8          	mov    %rdi,-0x8(%rbp)
    f84e:	48 8b 45 f8          	mov    -0x8(%rbp),%rax
    f852:	48 89 c7             	mov    %rax,%rdi
    f855:	e8 ee 08 00 00       	callq  10148 <_ZNSaISt13_Rb_tree_nodeISt4pairIKiP5VoterEEED1Ev>
    f85a:	90                   	nop
    f85b:	c9                   	leaveq 
    f85c:	c3                   	retq   
    f85d:	90                   	nop

000000000000f85e <_ZNSt8_Rb_treeIiSt4pairIKiP5VoterESt10_Select1stIS4_ESt4lessIiESaIS4_EED1Ev>:
    f85e:	55                   	push   %rbp
    f85f:	48 89 e5             	mov    %rsp,%rbp
    f862:	48 83 ec 10          	sub    $0x10,%rsp
    f866:	48 89 7d f8          	mov    %rdi,-0x8(%rbp)
    f86a:	48 8b 45 f8          	mov    -0x8(%rbp),%rax
    f86e:	48 89 c7             	mov    %rax,%rdi
    f871:	e8 54 09 00 00       	callq  101ca <_ZNSt8_Rb_treeIiSt4pairIKiP5VoterESt10_Select1stIS4_ESt4lessIiESaIS4_EE8_M_beginEv>
    f876:	48 89 c2             	mov    %rax,%rdx
    f879:	48 8b 45 f8          	mov    -0x8(%rbp),%rax
    f87d:	48 89 d6             	mov    %rdx,%rsi
    f880:	48 89 c7             	mov    %rax,%rdi
    f883:	e8 dc 08 00 00       	callq  10164 <_ZNSt8_Rb_treeIiSt4pairIKiP5VoterESt10_Select1stIS4_ESt4lessIiESaIS4_EE8_M_eraseEPSt13_Rb_tree_nodeIS4_E>
    f888:	48 8b 45 f8          	mov    -0x8(%rbp),%rax
    f88c:	48 89 c7             	mov    %rax,%rdi
    f88f:	e8 ae ff ff ff       	callq  f842 <_ZNSt8_Rb_treeIiSt4pairIKiP5VoterESt10_Select1stIS4_ESt4lessIiESaIS4_EE13_Rb_tree_implIS8_Lb1EED1Ev>
    f894:	90                   	nop
    f895:	c9                   	leaveq 
    f896:	c3                   	retq   
    f897:	90                   	nop

000000000000f898 <_ZNSt3mapIiP5VoterSt4lessIiESaISt4pairIKiS1_EEEixERS5_>:
    f898:	55                   	push   %rbp
    f899:	48 89 e5             	mov    %rsp,%rbp
    f89c:	53                   	push   %rbx
    f89d:	48 83 ec 48          	sub    $0x48,%rsp
    f8a1:	48 89 7d b8          	mov    %rdi,-0x48(%rbp)
    f8a5:	48 89 75 b0          	mov    %rsi,-0x50(%rbp)
    f8a9:	64 48 8b 04 25 28 00 	mov    %fs:0x28,%rax
    f8b0:	00 00 
    f8b2:	48 89 45 e8          	mov    %rax,-0x18(%rbp)
    f8b6:	31 c0                	xor    %eax,%eax
    f8b8:	48 8b 55 b0          	mov    -0x50(%rbp),%rdx
    f8bc:	48 8b 45 b8          	mov    -0x48(%rbp),%rax
    f8c0:	48 89 d6             	mov    %rdx,%rsi
    f8c3:	48 89 c7             	mov    %rax,%rdi
    f8c6:	e8 11 09 00 00       	callq  101dc <_ZNSt3mapIiP5VoterSt4lessIiESaISt4pairIKiS1_EEE11lower_boundERS5_>
    f8cb:	48 89 45 d0          	mov    %rax,-0x30(%rbp)
    f8cf:	48 8b 45 b8          	mov    -0x48(%rbp),%rax
    f8d3:	48 89 c7             	mov    %rax,%rdi
    f8d6:	e8 27 09 00 00       	callq  10202 <_ZNSt3mapIiP5VoterSt4lessIiESaISt4pairIKiS1_EEE3endEv>
    f8db:	48 89 45 e0          	mov    %rax,-0x20(%rbp)
    f8df:	48 8d 55 e0          	lea    -0x20(%rbp),%rdx
    f8e3:	48 8d 45 d0          	lea    -0x30(%rbp),%rax
    f8e7:	48 89 d6             	mov    %rdx,%rsi
    f8ea:	48 89 c7             	mov    %rax,%rdi
    f8ed:	e8 2a 09 00 00       	callq  1021c <_ZNKSt17_Rb_tree_iteratorISt4pairIKiP5VoterEEeqERKS5_>
    f8f2:	84 c0                	test   %al,%al
    f8f4:	75 32                	jne    f928 <_ZNSt3mapIiP5VoterSt4lessIiESaISt4pairIKiS1_EEEixERS5_+0x90>
    f8f6:	48 8b 45 b8          	mov    -0x48(%rbp),%rax
    f8fa:	48 89 c7             	mov    %rax,%rdi
    f8fd:	e8 3c 09 00 00       	callq  1023e <_ZNKSt3mapIiP5VoterSt4lessIiESaISt4pairIKiS1_EEE8key_compEv>
    f902:	48 8d 45 d0          	lea    -0x30(%rbp),%rax
    f906:	48 89 c7             	mov    %rax,%rdi
    f909:	e8 52 09 00 00       	callq  10260 <_ZNKSt17_Rb_tree_iteratorISt4pairIKiP5VoterEEdeEv>
    f90e:	48 89 c2             	mov    %rax,%rdx
    f911:	48 8b 4d b0          	mov    -0x50(%rbp),%rcx
    f915:	48 8d 45 d8          	lea    -0x28(%rbp),%rax
    f919:	48 89 ce             	mov    %rcx,%rsi
    f91c:	48 89 c7             	mov    %rax,%rdi
    f91f:	e8 84 04 00 00       	callq  fda8 <_ZNKSt4lessIiEclERKiS2_>
    f924:	84 c0                	test   %al,%al
    f926:	74 07                	je     f92f <_ZNSt3mapIiP5VoterSt4lessIiESaISt4pairIKiS1_EEEixERS5_+0x97>
    f928:	b8 01 00 00 00       	mov    $0x1,%eax
    f92d:	eb 05                	jmp    f934 <_ZNSt3mapIiP5VoterSt4lessIiESaISt4pairIKiS1_EEEixERS5_+0x9c>
    f92f:	b8 00 00 00 00       	mov    $0x0,%eax
    f934:	84 c0                	test   %al,%al
    f936:	74 52                	je     f98a <_ZNSt3mapIiP5VoterSt4lessIiESaISt4pairIKiS1_EEEixERS5_+0xf2>
    f938:	48 8b 5d b8          	mov    -0x48(%rbp),%rbx
    f93c:	48 8b 55 b0          	mov    -0x50(%rbp),%rdx
    f940:	48 8d 45 d8          	lea    -0x28(%rbp),%rax
    f944:	48 89 d6             	mov    %rdx,%rsi
    f947:	48 89 c7             	mov    %rax,%rdi
    f94a:	e8 51 fc ff ff       	callq  f5a0 <_ZNSt5tupleIJRKiEEC1IvLb1EEES1_>
    f94f:	48 8d 55 d0          	lea    -0x30(%rbp),%rdx
    f953:	48 8d 45 e0          	lea    -0x20(%rbp),%rax
    f957:	48 89 d6             	mov    %rdx,%rsi
    f95a:	48 89 c7             	mov    %rax,%rdi
    f95d:	e8 1c 09 00 00       	callq  1027e <_ZNSt23_Rb_tree_const_iteratorISt4pairIKiP5VoterEEC1ERKSt17_Rb_tree_iteratorIS4_E>
    f962:	48 8d 4d cf          	lea    -0x31(%rbp),%rcx
    f966:	48 8d 55 d8          	lea    -0x28(%rbp),%rdx
    f96a:	48 8b 45 e0          	mov    -0x20(%rbp),%rax
    f96e:	49 89 c8             	mov    %rcx,%r8
    f971:	48 89 d1             	mov    %rdx,%rcx
    f974:	48 8d 15 4d 5a 00 00 	lea    0x5a4d(%rip),%rdx        # 153c8 <_ZStL19piecewise_construct>
    f97b:	48 89 c6             	mov    %rax,%rsi
    f97e:	48 89 df             	mov    %rbx,%rdi
    f981:	e8 16 09 00 00       	callq  1029c <_ZNSt8_Rb_treeIiSt4pairIKiP5VoterESt10_Select1stIS4_ESt4lessIiESaIS4_EE22_M_emplace_hint_uniqueIJRKSt21piecewise_construct_tSt5tupleIJRS1_EESF_IJEEEEESt17_Rb_tree_iteratorIS4_ESt23_Rb_tree_const_iteratorIS4_EDpOT_>
    f986:	48 89 45 d0          	mov    %rax,-0x30(%rbp)
    f98a:	48 8d 45 d0          	lea    -0x30(%rbp),%rax
    f98e:	48 89 c7             	mov    %rax,%rdi
    f991:	e8 ca 08 00 00       	callq  10260 <_ZNKSt17_Rb_tree_iteratorISt4pairIKiP5VoterEEdeEv>
    f996:	48 83 c0 08          	add    $0x8,%rax
    f99a:	48 8b 5d e8          	mov    -0x18(%rbp),%rbx
    f99e:	64 48 33 1c 25 28 00 	xor    %fs:0x28,%rbx
    f9a5:	00 00 
    f9a7:	74 05                	je     f9ae <_ZNSt3mapIiP5VoterSt4lessIiESaISt4pairIKiS1_EEEixERS5_+0x116>
    f9a9:	e8 32 dd ff ff       	callq  d6e0 <__stack_chk_fail@plt>
    f9ae:	48 83 c4 48          	add    $0x48,%rsp
    f9b2:	5b                   	pop    %rbx
    f9b3:	5d                   	pop    %rbp
    f9b4:	c3                   	retq   
    f9b5:	90                   	nop

000000000000f9b6 <_ZNSt8_Rb_treeIiSt4pairIKiP9CandidateESt10_Select1stIS4_ESt4lessIiESaIS4_EE13_Rb_tree_implIS8_Lb1EED1Ev>:
    f9b6:	55                   	push   %rbp
    f9b7:	48 89 e5             	mov    %rsp,%rbp
    f9ba:	48 83 ec 10          	sub    $0x10,%rsp
    f9be:	48 89 7d f8          	mov    %rdi,-0x8(%rbp)
    f9c2:	48 8b 45 f8          	mov    -0x8(%rbp),%rax
    f9c6:	48 89 c7             	mov    %rax,%rdi
    f9c9:	e8 08 0a 00 00       	callq  103d6 <_ZNSaISt13_Rb_tree_nodeISt4pairIKiP9CandidateEEED1Ev>
    f9ce:	90                   	nop
    f9cf:	c9                   	leaveq 
    f9d0:	c3                   	retq   
    f9d1:	90                   	nop

000000000000f9d2 <_ZNSt8_Rb_treeIiSt4pairIKiP9CandidateESt10_Select1stIS4_ESt4lessIiESaIS4_EED1Ev>:
    f9d2:	55                   	push   %rbp
    f9d3:	48 89 e5             	mov    %rsp,%rbp
    f9d6:	48 83 ec 10          	sub    $0x10,%rsp
    f9da:	48 89 7d f8          	mov    %rdi,-0x8(%rbp)
    f9de:	48 8b 45 f8          	mov    -0x8(%rbp),%rax
    f9e2:	48 89 c7             	mov    %rax,%rdi
    f9e5:	e8 6e 0a 00 00       	callq  10458 <_ZNSt8_Rb_treeIiSt4pairIKiP9CandidateESt10_Select1stIS4_ESt4lessIiESaIS4_EE8_M_beginEv>
    f9ea:	48 89 c2             	mov    %rax,%rdx
    f9ed:	48 8b 45 f8          	mov    -0x8(%rbp),%rax
    f9f1:	48 89 d6             	mov    %rdx,%rsi
    f9f4:	48 89 c7             	mov    %rax,%rdi
    f9f7:	e8 f6 09 00 00       	callq  103f2 <_ZNSt8_Rb_treeIiSt4pairIKiP9CandidateESt10_Select1stIS4_ESt4lessIiESaIS4_EE8_M_eraseEPSt13_Rb_tree_nodeIS4_E>
    f9fc:	48 8b 45 f8          	mov    -0x8(%rbp),%rax
    fa00:	48 89 c7             	mov    %rax,%rdi
    fa03:	e8 ae ff ff ff       	callq  f9b6 <_ZNSt8_Rb_treeIiSt4pairIKiP9CandidateESt10_Select1stIS4_ESt4lessIiESaIS4_EE13_Rb_tree_implIS8_Lb1EED1Ev>
    fa08:	90                   	nop
    fa09:	c9                   	leaveq 
    fa0a:	c3                   	retq   
    fa0b:	90                   	nop

000000000000fa0c <_ZNSt3mapIiP9CandidateSt4lessIiESaISt4pairIKiS1_EEEixERS5_>:
    fa0c:	55                   	push   %rbp
    fa0d:	48 89 e5             	mov    %rsp,%rbp
    fa10:	53                   	push   %rbx
    fa11:	48 83 ec 48          	sub    $0x48,%rsp
    fa15:	48 89 7d b8          	mov    %rdi,-0x48(%rbp)
    fa19:	48 89 75 b0          	mov    %rsi,-0x50(%rbp)
    fa1d:	64 48 8b 04 25 28 00 	mov    %fs:0x28,%rax
    fa24:	00 00 
    fa26:	48 89 45 e8          	mov    %rax,-0x18(%rbp)
    fa2a:	31 c0                	xor    %eax,%eax
    fa2c:	48 8b 55 b0          	mov    -0x50(%rbp),%rdx
    fa30:	48 8b 45 b8          	mov    -0x48(%rbp),%rax
    fa34:	48 89 d6             	mov    %rdx,%rsi
    fa37:	48 89 c7             	mov    %rax,%rdi
    fa3a:	e8 2b 0a 00 00       	callq  1046a <_ZNSt3mapIiP9CandidateSt4lessIiESaISt4pairIKiS1_EEE11lower_boundERS5_>
    fa3f:	48 89 45 d0          	mov    %rax,-0x30(%rbp)
    fa43:	48 8b 45 b8          	mov    -0x48(%rbp),%rax
    fa47:	48 89 c7             	mov    %rax,%rdi
    fa4a:	e8 41 0a 00 00       	callq  10490 <_ZNSt3mapIiP9CandidateSt4lessIiESaISt4pairIKiS1_EEE3endEv>
    fa4f:	48 89 45 e0          	mov    %rax,-0x20(%rbp)
    fa53:	48 8d 55 e0          	lea    -0x20(%rbp),%rdx
    fa57:	48 8d 45 d0          	lea    -0x30(%rbp),%rax
    fa5b:	48 89 d6             	mov    %rdx,%rsi
    fa5e:	48 89 c7             	mov    %rax,%rdi
    fa61:	e8 44 0a 00 00       	callq  104aa <_ZNKSt17_Rb_tree_iteratorISt4pairIKiP9CandidateEEeqERKS5_>
    fa66:	84 c0                	test   %al,%al
    fa68:	75 32                	jne    fa9c <_ZNSt3mapIiP9CandidateSt4lessIiESaISt4pairIKiS1_EEEixERS5_+0x90>
    fa6a:	48 8b 45 b8          	mov    -0x48(%rbp),%rax
    fa6e:	48 89 c7             	mov    %rax,%rdi
    fa71:	e8 56 0a 00 00       	callq  104cc <_ZNKSt3mapIiP9CandidateSt4lessIiESaISt4pairIKiS1_EEE8key_compEv>
    fa76:	48 8d 45 d0          	lea    -0x30(%rbp),%rax
    fa7a:	48 89 c7             	mov    %rax,%rdi
    fa7d:	e8 6c 0a 00 00       	callq  104ee <_ZNKSt17_Rb_tree_iteratorISt4pairIKiP9CandidateEEdeEv>
    fa82:	48 89 c2             	mov    %rax,%rdx
    fa85:	48 8b 4d b0          	mov    -0x50(%rbp),%rcx
    fa89:	48 8d 45 d8          	lea    -0x28(%rbp),%rax
    fa8d:	48 89 ce             	mov    %rcx,%rsi
    fa90:	48 89 c7             	mov    %rax,%rdi
    fa93:	e8 10 03 00 00       	callq  fda8 <_ZNKSt4lessIiEclERKiS2_>
    fa98:	84 c0                	test   %al,%al
    fa9a:	74 07                	je     faa3 <_ZNSt3mapIiP9CandidateSt4lessIiESaISt4pairIKiS1_EEEixERS5_+0x97>
    fa9c:	b8 01 00 00 00       	mov    $0x1,%eax
    faa1:	eb 05                	jmp    faa8 <_ZNSt3mapIiP9CandidateSt4lessIiESaISt4pairIKiS1_EEEixERS5_+0x9c>
    faa3:	b8 00 00 00 00       	mov    $0x0,%eax
    faa8:	84 c0                	test   %al,%al
    faaa:	74 52                	je     fafe <_ZNSt3mapIiP9CandidateSt4lessIiESaISt4pairIKiS1_EEEixERS5_+0xf2>
    faac:	48 8b 5d b8          	mov    -0x48(%rbp),%rbx
    fab0:	48 8b 55 b0          	mov    -0x50(%rbp),%rdx
    fab4:	48 8d 45 d8          	lea    -0x28(%rbp),%rax
    fab8:	48 89 d6             	mov    %rdx,%rsi
    fabb:	48 89 c7             	mov    %rax,%rdi
    fabe:	e8 dd fa ff ff       	callq  f5a0 <_ZNSt5tupleIJRKiEEC1IvLb1EEES1_>
    fac3:	48 8d 55 d0          	lea    -0x30(%rbp),%rdx
    fac7:	48 8d 45 e0          	lea    -0x20(%rbp),%rax
    facb:	48 89 d6             	mov    %rdx,%rsi
    face:	48 89 c7             	mov    %rax,%rdi
    fad1:	e8 36 0a 00 00       	callq  1050c <_ZNSt23_Rb_tree_const_iteratorISt4pairIKiP9CandidateEEC1ERKSt17_Rb_tree_iteratorIS4_E>
    fad6:	48 8d 4d cf          	lea    -0x31(%rbp),%rcx
    fada:	48 8d 55 d8          	lea    -0x28(%rbp),%rdx
    fade:	48 8b 45 e0          	mov    -0x20(%rbp),%rax
    fae2:	49 89 c8             	mov    %rcx,%r8
    fae5:	48 89 d1             	mov    %rdx,%rcx
    fae8:	48 8d 15 d9 58 00 00 	lea    0x58d9(%rip),%rdx        # 153c8 <_ZStL19piecewise_construct>
    faef:	48 89 c6             	mov    %rax,%rsi
    faf2:	48 89 df             	mov    %rbx,%rdi
    faf5:	e8 30 0a 00 00       	callq  1052a <_ZNSt8_Rb_treeIiSt4pairIKiP9CandidateESt10_Select1stIS4_ESt4lessIiESaIS4_EE22_M_emplace_hint_uniqueIJRKSt21piecewise_construct_tSt5tupleIJRS1_EESF_IJEEEEESt17_Rb_tree_iteratorIS4_ESt23_Rb_tree_const_iteratorIS4_EDpOT_>
    fafa:	48 89 45 d0          	mov    %rax,-0x30(%rbp)
    fafe:	48 8d 45 d0          	lea    -0x30(%rbp),%rax
    fb02:	48 89 c7             	mov    %rax,%rdi
    fb05:	e8 e4 09 00 00       	callq  104ee <_ZNKSt17_Rb_tree_iteratorISt4pairIKiP9CandidateEEdeEv>
    fb0a:	48 83 c0 08          	add    $0x8,%rax
    fb0e:	48 8b 5d e8          	mov    -0x18(%rbp),%rbx
    fb12:	64 48 33 1c 25 28 00 	xor    %fs:0x28,%rbx
    fb19:	00 00 
    fb1b:	74 05                	je     fb22 <_ZNSt3mapIiP9CandidateSt4lessIiESaISt4pairIKiS1_EEEixERS5_+0x116>
    fb1d:	e8 be db ff ff       	callq  d6e0 <__stack_chk_fail@plt>
    fb22:	48 83 c4 48          	add    $0x48,%rsp
    fb26:	5b                   	pop    %rbx
    fb27:	5d                   	pop    %rbp
    fb28:	c3                   	retq   

000000000000fb29 <_ZSt4moveIRNSt7__cxx1112basic_stringIcSt11char_traitsIcESaIcEEEEONSt16remove_referenceIT_E4typeEOS8_>:
    fb29:	55                   	push   %rbp
    fb2a:	48 89 e5             	mov    %rsp,%rbp
    fb2d:	48 89 7d f8          	mov    %rdi,-0x8(%rbp)
    fb31:	48 8b 45 f8          	mov    -0x8(%rbp),%rax
    fb35:	5d                   	pop    %rbp
    fb36:	c3                   	retq   
    fb37:	90                   	nop

000000000000fb38 <_ZNSt5tupleIJPFvvEEEC1IvLb1EEERKS1_>:
    fb38:	55                   	push   %rbp
    fb39:	48 89 e5             	mov    %rsp,%rbp
    fb3c:	48 83 ec 10          	sub    $0x10,%rsp
    fb40:	48 89 7d f8          	mov    %rdi,-0x8(%rbp)
    fb44:	48 89 75 f0          	mov    %rsi,-0x10(%rbp)
    fb48:	48 8b 45 f8          	mov    -0x8(%rbp),%rax
    fb4c:	48 8b 55 f0          	mov    -0x10(%rbp),%rdx
    fb50:	48 89 d6             	mov    %rdx,%rsi
    fb53:	48 89 c7             	mov    %rax,%rdi
    fb56:	e8 03 00 00 00       	callq  fb5e <_ZNSt11_Tuple_implILm0EJPFvvEEEC1ERKS1_>
    fb5b:	90                   	nop
    fb5c:	c9                   	leaveq 
    fb5d:	c3                   	retq   

000000000000fb5e <_ZNSt11_Tuple_implILm0EJPFvvEEEC1ERKS1_>:
    fb5e:	55                   	push   %rbp
    fb5f:	48 89 e5             	mov    %rsp,%rbp
    fb62:	48 83 ec 10          	sub    $0x10,%rsp
    fb66:	48 89 7d f8          	mov    %rdi,-0x8(%rbp)
    fb6a:	48 89 75 f0          	mov    %rsi,-0x10(%rbp)
    fb6e:	48 8b 45 f8          	mov    -0x8(%rbp),%rax
    fb72:	48 8b 55 f0          	mov    -0x10(%rbp),%rdx
    fb76:	48 89 d6             	mov    %rdx,%rsi
    fb79:	48 89 c7             	mov    %rax,%rdi
    fb7c:	e8 03 00 00 00       	callq  fb84 <_ZNSt10_Head_baseILm0EPFvvELb0EEC1ERKS1_>
    fb81:	90                   	nop
    fb82:	c9                   	leaveq 
    fb83:	c3                   	retq   

000000000000fb84 <_ZNSt10_Head_baseILm0EPFvvELb0EEC1ERKS1_>:
    fb84:	55                   	push   %rbp
    fb85:	48 89 e5             	mov    %rsp,%rbp
    fb88:	48 89 7d f8          	mov    %rdi,-0x8(%rbp)
    fb8c:	48 89 75 f0          	mov    %rsi,-0x10(%rbp)
    fb90:	48 8b 45 f0          	mov    -0x10(%rbp),%rax
    fb94:	48 8b 10             	mov    (%rax),%rdx
    fb97:	48 8b 45 f8          	mov    -0x8(%rbp),%rax
    fb9b:	48 89 10             	mov    %rdx,(%rax)
    fb9e:	90                   	nop
    fb9f:	5d                   	pop    %rbp
    fba0:	c3                   	retq   
    fba1:	90                   	nop

000000000000fba2 <_ZNSt5tupleIJPFvvEEEC1EOS2_>:
    fba2:	55                   	push   %rbp
    fba3:	48 89 e5             	mov    %rsp,%rbp
    fba6:	48 83 ec 10          	sub    $0x10,%rsp
    fbaa:	48 89 7d f8          	mov    %rdi,-0x8(%rbp)
    fbae:	48 89 75 f0          	mov    %rsi,-0x10(%rbp)
    fbb2:	48 8b 45 f8          	mov    -0x8(%rbp),%rax
    fbb6:	48 8b 55 f0          	mov    -0x10(%rbp),%rdx
    fbba:	48 89 d6             	mov    %rdx,%rsi
    fbbd:	48 89 c7             	mov    %rax,%rdi
    fbc0:	e8 c7 0a 00 00       	callq  1068c <_ZNSt11_Tuple_implILm0EJPFvvEEEC1EOS2_>
    fbc5:	90                   	nop
    fbc6:	c9                   	leaveq 
    fbc7:	c3                   	retq   

000000000000fbc8 <_ZNSt6thread14__make_invokerIRFvvEJEEENS_8_InvokerISt5tupleIJNSt5decayIT_E4typeEDpNS5_IT0_E4typeEEEEEOS6_DpOS9_>:
    fbc8:	55                   	push   %rbp
    fbc9:	48 89 e5             	mov    %rsp,%rbp
    fbcc:	53                   	push   %rbx
    fbcd:	48 83 ec 28          	sub    $0x28,%rsp
    fbd1:	48 89 7d d8          	mov    %rdi,-0x28(%rbp)
    fbd5:	48 89 75 d0          	mov    %rsi,-0x30(%rbp)
    fbd9:	64 48 8b 04 25 28 00 	mov    %fs:0x28,%rax
    fbe0:	00 00 
    fbe2:	48 89 45 e8          	mov    %rax,-0x18(%rbp)
    fbe6:	31 c0                	xor    %eax,%eax
    fbe8:	48 8b 5d d8          	mov    -0x28(%rbp),%rbx
    fbec:	48 8b 45 d0          	mov    -0x30(%rbp),%rax
    fbf0:	48 89 c7             	mov    %rax,%rdi
    fbf3:	e8 1b f7 ff ff       	callq  f313 <_ZSt7forwardIRFvvEEOT_RNSt16remove_referenceIS2_E4typeE>
    fbf8:	48 89 45 e0          	mov    %rax,-0x20(%rbp)
    fbfc:	48 8d 45 e0          	lea    -0x20(%rbp),%rax
    fc00:	48 89 c6             	mov    %rax,%rsi
    fc03:	48 89 df             	mov    %rbx,%rdi
    fc06:	e8 2d ff ff ff       	callq  fb38 <_ZNSt5tupleIJPFvvEEEC1IvLb1EEERKS1_>
    fc0b:	48 8b 45 d8          	mov    -0x28(%rbp),%rax
    fc0f:	48 8b 55 e8          	mov    -0x18(%rbp),%rdx
    fc13:	64 48 33 14 25 28 00 	xor    %fs:0x28,%rdx
    fc1a:	00 00 
    fc1c:	74 05                	je     fc23 <_ZNSt6thread14__make_invokerIRFvvEJEEENS_8_InvokerISt5tupleIJNSt5decayIT_E4typeEDpNS5_IT0_E4typeEEEEEOS6_DpOS9_+0x5b>
    fc1e:	e8 bd da ff ff       	callq  d6e0 <__stack_chk_fail@plt>
    fc23:	48 83 c4 28          	add    $0x28,%rsp
    fc27:	5b                   	pop    %rbx
    fc28:	5d                   	pop    %rbp
    fc29:	c3                   	retq   

000000000000fc2a <_ZSt13__invoke_implIvPFvvEJEET_St14__invoke_otherOT0_DpOT1_>:
    fc2a:	55                   	push   %rbp
    fc2b:	48 89 e5             	mov    %rsp,%rbp
    fc2e:	48 83 ec 10          	sub    $0x10,%rsp
    fc32:	48 89 7d f8          	mov    %rdi,-0x8(%rbp)
    fc36:	48 8b 45 f8          	mov    -0x8(%rbp),%rax
    fc3a:	48 89 c7             	mov    %rax,%rdi
    fc3d:	e8 df f6 ff ff       	callq  f321 <_ZSt7forwardIPFvvEEOT_RNSt16remove_referenceIS2_E4typeE>
    fc42:	48 8b 00             	mov    (%rax),%rax
    fc45:	ff d0                	callq  *%rax
    fc47:	90                   	nop
    fc48:	c9                   	leaveq 
    fc49:	c3                   	retq   

000000000000fc4a <_ZSt7forwardINSt6thread8_InvokerISt5tupleIJPFvvEEEEEEOT_RNSt16remove_referenceIS7_E4typeE>:
    fc4a:	55                   	push   %rbp
    fc4b:	48 89 e5             	mov    %rsp,%rbp
    fc4e:	48 89 7d f8          	mov    %rdi,-0x8(%rbp)
    fc52:	48 8b 45 f8          	mov    -0x8(%rbp),%rax
    fc56:	5d                   	pop    %rbp
    fc57:	c3                   	retq   

000000000000fc58 <_ZNSt6thread13_S_make_stateINS_8_InvokerISt5tupleIJPFvvEEEEEEESt10unique_ptrINS_6_StateESt14default_deleteIS8_EEOT_>:
    fc58:	55                   	push   %rbp
    fc59:	48 89 e5             	mov    %rsp,%rbp
    fc5c:	41 54                	push   %r12
    fc5e:	53                   	push   %rbx
    fc5f:	48 83 ec 10          	sub    $0x10,%rsp
    fc63:	48 89 7d e8          	mov    %rdi,-0x18(%rbp)
    fc67:	48 89 75 e0          	mov    %rsi,-0x20(%rbp)
    fc6b:	48 8b 45 e0          	mov    -0x20(%rbp),%rax
    fc6f:	48 89 c7             	mov    %rax,%rdi
    fc72:	e8 d3 ff ff ff       	callq  fc4a <_ZSt7forwardINSt6thread8_InvokerISt5tupleIJPFvvEEEEEEOT_RNSt16remove_referenceIS7_E4typeE>
    fc77:	49 89 c4             	mov    %rax,%r12
    fc7a:	bf 10 00 00 00       	mov    $0x10,%edi
    fc7f:	e8 ec d9 ff ff       	callq  d670 <_Znwm@plt>
    fc84:	48 89 c3             	mov    %rax,%rbx
    fc87:	4c 89 e6             	mov    %r12,%rsi
    fc8a:	48 89 df             	mov    %rbx,%rdi
    fc8d:	e8 76 0a 00 00       	callq  10708 <_ZNSt6thread11_State_implINS_8_InvokerISt5tupleIJPFvvEEEEEEC1EOS6_>
    fc92:	48 8b 45 e8          	mov    -0x18(%rbp),%rax
    fc96:	48 89 de             	mov    %rbx,%rsi
    fc99:	48 89 c7             	mov    %rax,%rdi
    fc9c:	e8 b9 0a 00 00       	callq  1075a <_ZNSt10unique_ptrINSt6thread6_StateESt14default_deleteIS1_EEC1IS3_vEEPS1_>
    fca1:	48 8b 45 e8          	mov    -0x18(%rbp),%rax
    fca5:	48 83 c4 10          	add    $0x10,%rsp
    fca9:	5b                   	pop    %rbx
    fcaa:	41 5c                	pop    %r12
    fcac:	5d                   	pop    %rbp
    fcad:	c3                   	retq   

000000000000fcae <_ZNSt10unique_ptrINSt6thread6_StateESt14default_deleteIS1_EED1Ev>:
    fcae:	55                   	push   %rbp
    fcaf:	48 89 e5             	mov    %rsp,%rbp
    fcb2:	48 83 ec 20          	sub    $0x20,%rsp
    fcb6:	48 89 7d e8          	mov    %rdi,-0x18(%rbp)
    fcba:	48 8b 45 e8          	mov    -0x18(%rbp),%rax
    fcbe:	48 89 c7             	mov    %rax,%rdi
    fcc1:	e8 ba 0a 00 00       	callq  10780 <_ZNSt15__uniq_ptr_implINSt6thread6_StateESt14default_deleteIS1_EE6_M_ptrEv>
    fcc6:	48 89 45 f8          	mov    %rax,-0x8(%rbp)
    fcca:	48 8b 45 f8          	mov    -0x8(%rbp),%rax
    fcce:	48 8b 00             	mov    (%rax),%rax
    fcd1:	48 85 c0             	test   %rax,%rax
    fcd4:	74 21                	je     fcf7 <_ZNSt10unique_ptrINSt6thread6_StateESt14default_deleteIS1_EED1Ev+0x49>
    fcd6:	48 8b 45 e8          	mov    -0x18(%rbp),%rax
    fcda:	48 89 c7             	mov    %rax,%rdi
    fcdd:	e8 b8 0a 00 00       	callq  1079a <_ZNSt10unique_ptrINSt6thread6_StateESt14default_deleteIS1_EE11get_deleterEv>
    fce2:	48 89 c2             	mov    %rax,%rdx
    fce5:	48 8b 45 f8          	mov    -0x8(%rbp),%rax
    fce9:	48 8b 00             	mov    (%rax),%rax
    fcec:	48 89 c6             	mov    %rax,%rsi
    fcef:	48 89 d7             	mov    %rdx,%rdi
    fcf2:	e8 bd 0a 00 00       	callq  107b4 <_ZNKSt14default_deleteINSt6thread6_StateEEclEPS1_>
    fcf7:	48 8b 45 f8          	mov    -0x8(%rbp),%rax
    fcfb:	48 c7 00 00 00 00 00 	movq   $0x0,(%rax)
    fd02:	90                   	nop
    fd03:	c9                   	leaveq 
    fd04:	c3                   	retq   
    fd05:	90                   	nop

000000000000fd06 <_ZNSt3mapIiP5StateSt4lessIiESaISt4pairIKiS1_EEE11lower_boundERS5_>:
    fd06:	55                   	push   %rbp
    fd07:	48 89 e5             	mov    %rsp,%rbp
    fd0a:	48 83 ec 10          	sub    $0x10,%rsp
    fd0e:	48 89 7d f8          	mov    %rdi,-0x8(%rbp)
    fd12:	48 89 75 f0          	mov    %rsi,-0x10(%rbp)
    fd16:	48 8b 45 f8          	mov    -0x8(%rbp),%rax
    fd1a:	48 8b 55 f0          	mov    -0x10(%rbp),%rdx
    fd1e:	48 89 d6             	mov    %rdx,%rsi
    fd21:	48 89 c7             	mov    %rax,%rdi
    fd24:	e8 bd 0a 00 00       	callq  107e6 <_ZNSt8_Rb_treeIiSt4pairIKiP5StateESt10_Select1stIS4_ESt4lessIiESaIS4_EE11lower_boundERS1_>
    fd29:	c9                   	leaveq 
    fd2a:	c3                   	retq   
    fd2b:	90                   	nop

000000000000fd2c <_ZNSt3mapIiP5StateSt4lessIiESaISt4pairIKiS1_EEE3endEv>:
    fd2c:	55                   	push   %rbp
    fd2d:	48 89 e5             	mov    %rsp,%rbp
    fd30:	48 83 ec 10          	sub    $0x10,%rsp
    fd34:	48 89 7d f8          	mov    %rdi,-0x8(%rbp)
    fd38:	48 8b 45 f8          	mov    -0x8(%rbp),%rax
    fd3c:	48 89 c7             	mov    %rax,%rdi
    fd3f:	e8 ee 0a 00 00       	callq  10832 <_ZNSt8_Rb_treeIiSt4pairIKiP5StateESt10_Select1stIS4_ESt4lessIiESaIS4_EE3endEv>
    fd44:	c9                   	leaveq 
    fd45:	c3                   	retq   

000000000000fd46 <_ZNKSt17_Rb_tree_iteratorISt4pairIKiP5StateEEeqERKS5_>:
    fd46:	55                   	push   %rbp
    fd47:	48 89 e5             	mov    %rsp,%rbp
    fd4a:	48 89 7d f8          	mov    %rdi,-0x8(%rbp)
    fd4e:	48 89 75 f0          	mov    %rsi,-0x10(%rbp)
    fd52:	48 8b 45 f8          	mov    -0x8(%rbp),%rax
    fd56:	48 8b 10             	mov    (%rax),%rdx
    fd59:	48 8b 45 f0          	mov    -0x10(%rbp),%rax
    fd5d:	48 8b 00             	mov    (%rax),%rax
    fd60:	48 39 c2             	cmp    %rax,%rdx
    fd63:	0f 94 c0             	sete   %al
    fd66:	5d                   	pop    %rbp
    fd67:	c3                   	retq   

000000000000fd68 <_ZNKSt3mapIiP5StateSt4lessIiESaISt4pairIKiS1_EEE8key_compEv>:
    fd68:	55                   	push   %rbp
    fd69:	48 89 e5             	mov    %rsp,%rbp
    fd6c:	53                   	push   %rbx
    fd6d:	48 83 ec 18          	sub    $0x18,%rsp
    fd71:	48 89 7d e8          	mov    %rdi,-0x18(%rbp)
    fd75:	48 8b 45 e8          	mov    -0x18(%rbp),%rax
    fd79:	48 89 c7             	mov    %rax,%rdi
    fd7c:	e8 fd 0a 00 00       	callq  1087e <_ZNKSt8_Rb_treeIiSt4pairIKiP5StateESt10_Select1stIS4_ESt4lessIiESaIS4_EE8key_compEv>
    fd81:	89 d8                	mov    %ebx,%eax
    fd83:	48 83 c4 18          	add    $0x18,%rsp
    fd87:	5b                   	pop    %rbx
    fd88:	5d                   	pop    %rbp
    fd89:	c3                   	retq   

000000000000fd8a <_ZNKSt17_Rb_tree_iteratorISt4pairIKiP5StateEEdeEv>:
    fd8a:	55                   	push   %rbp
    fd8b:	48 89 e5             	mov    %rsp,%rbp
    fd8e:	48 83 ec 10          	sub    $0x10,%rsp
    fd92:	48 89 7d f8          	mov    %rdi,-0x8(%rbp)
    fd96:	48 8b 45 f8          	mov    -0x8(%rbp),%rax
    fd9a:	48 8b 00             	mov    (%rax),%rax
    fd9d:	48 89 c7             	mov    %rax,%rdi
    fda0:	e8 e3 0a 00 00       	callq  10888 <_ZNSt13_Rb_tree_nodeISt4pairIKiP5StateEE9_M_valptrEv>
    fda5:	c9                   	leaveq 
    fda6:	c3                   	retq   
    fda7:	90                   	nop

000000000000fda8 <_ZNKSt4lessIiEclERKiS2_>:
    fda8:	55                   	push   %rbp
    fda9:	48 89 e5             	mov    %rsp,%rbp
    fdac:	48 89 7d f8          	mov    %rdi,-0x8(%rbp)
    fdb0:	48 89 75 f0          	mov    %rsi,-0x10(%rbp)
    fdb4:	48 89 55 e8          	mov    %rdx,-0x18(%rbp)
    fdb8:	48 8b 45 f0          	mov    -0x10(%rbp),%rax
    fdbc:	8b 10                	mov    (%rax),%edx
    fdbe:	48 8b 45 e8          	mov    -0x18(%rbp),%rax
    fdc2:	8b 00                	mov    (%rax),%eax
    fdc4:	39 c2                	cmp    %eax,%edx
    fdc6:	0f 9c c0             	setl   %al
    fdc9:	5d                   	pop    %rbp
    fdca:	c3                   	retq   
    fdcb:	90                   	nop

000000000000fdcc <_ZNSt23_Rb_tree_const_iteratorISt4pairIKiP5StateEEC1ERKSt17_Rb_tree_iteratorIS4_E>:
    fdcc:	55                   	push   %rbp
    fdcd:	48 89 e5             	mov    %rsp,%rbp
    fdd0:	48 89 7d f8          	mov    %rdi,-0x8(%rbp)
    fdd4:	48 89 75 f0          	mov    %rsi,-0x10(%rbp)
    fdd8:	48 8b 45 f0          	mov    -0x10(%rbp),%rax
    fddc:	48 8b 10             	mov    (%rax),%rdx
    fddf:	48 8b 45 f8          	mov    -0x8(%rbp),%rax
    fde3:	48 89 10             	mov    %rdx,(%rax)
    fde6:	90                   	nop
    fde7:	5d                   	pop    %rbp
    fde8:	c3                   	retq   

000000000000fde9 <_ZSt7forwardIRKSt21piecewise_construct_tEOT_RNSt16remove_referenceIS3_E4typeE>:
    fde9:	55                   	push   %rbp
    fdea:	48 89 e5             	mov    %rsp,%rbp
    fded:	48 89 7d f8          	mov    %rdi,-0x8(%rbp)
    fdf1:	48 8b 45 f8          	mov    -0x8(%rbp),%rax
    fdf5:	5d                   	pop    %rbp
    fdf6:	c3                   	retq   

000000000000fdf7 <_ZSt7forwardISt5tupleIJRKiEEEOT_RNSt16remove_referenceIS4_E4typeE>:
    fdf7:	55                   	push   %rbp
    fdf8:	48 89 e5             	mov    %rsp,%rbp
    fdfb:	48 89 7d f8          	mov    %rdi,-0x8(%rbp)
    fdff:	48 8b 45 f8          	mov    -0x8(%rbp),%rax
    fe03:	5d                   	pop    %rbp
    fe04:	c3                   	retq   

000000000000fe05 <_ZSt7forwardISt5tupleIJEEEOT_RNSt16remove_referenceIS2_E4typeE>:
    fe05:	55                   	push   %rbp
    fe06:	48 89 e5             	mov    %rsp,%rbp
    fe09:	48 89 7d f8          	mov    %rdi,-0x8(%rbp)
    fe0d:	48 8b 45 f8          	mov    -0x8(%rbp),%rax
    fe11:	5d                   	pop    %rbp
    fe12:	c3                   	retq   
    fe13:	90                   	nop

000000000000fe14 <_ZNSt8_Rb_treeIiSt4pairIKiP5StateESt10_Select1stIS4_ESt4lessIiESaIS4_EE22_M_emplace_hint_uniqueIJRKSt21piecewise_construct_tSt5tupleIJRS1_EESF_IJEEEEESt17_Rb_tree_iteratorIS4_ESt23_Rb_tree_const_iteratorIS4_EDpOT_>:
    fe14:	55                   	push   %rbp
    fe15:	48 89 e5             	mov    %rsp,%rbp
    fe18:	41 54                	push   %r12
    fe1a:	53                   	push   %rbx
    fe1b:	48 83 ec 60          	sub    $0x60,%rsp
    fe1f:	48 89 7d b8          	mov    %rdi,-0x48(%rbp)
    fe23:	48 89 75 b0          	mov    %rsi,-0x50(%rbp)
    fe27:	48 89 55 a8          	mov    %rdx,-0x58(%rbp)
    fe2b:	48 89 4d a0          	mov    %rcx,-0x60(%rbp)
    fe2f:	4c 89 45 98          	mov    %r8,-0x68(%rbp)
    fe33:	64 48 8b 04 25 28 00 	mov    %fs:0x28,%rax
    fe3a:	00 00 
    fe3c:	48 89 45 e8          	mov    %rax,-0x18(%rbp)
    fe40:	31 c0                	xor    %eax,%eax
    fe42:	48 8b 45 98          	mov    -0x68(%rbp),%rax
    fe46:	48 89 c7             	mov    %rax,%rdi
    fe49:	e8 b7 ff ff ff       	callq  fe05 <_ZSt7forwardISt5tupleIJEEEOT_RNSt16remove_referenceIS2_E4typeE>
    fe4e:	49 89 c4             	mov    %rax,%r12
    fe51:	48 8b 45 a0          	mov    -0x60(%rbp),%rax
    fe55:	48 89 c7             	mov    %rax,%rdi
    fe58:	e8 9a ff ff ff       	callq  fdf7 <_ZSt7forwardISt5tupleIJRKiEEEOT_RNSt16remove_referenceIS4_E4typeE>
    fe5d:	48 89 c3             	mov    %rax,%rbx
    fe60:	48 8b 45 a8          	mov    -0x58(%rbp),%rax
    fe64:	48 89 c7             	mov    %rax,%rdi
    fe67:	e8 7d ff ff ff       	callq  fde9 <_ZSt7forwardIRKSt21piecewise_construct_tEOT_RNSt16remove_referenceIS3_E4typeE>
    fe6c:	48 89 c6             	mov    %rax,%rsi
    fe6f:	48 8b 45 b8          	mov    -0x48(%rbp),%rax
    fe73:	4c 89 e1             	mov    %r12,%rcx
    fe76:	48 89 da             	mov    %rbx,%rdx
    fe79:	48 89 c7             	mov    %rax,%rdi
    fe7c:	e8 25 0a 00 00       	callq  108a6 <_ZNSt8_Rb_treeIiSt4pairIKiP5StateESt10_Select1stIS4_ESt4lessIiESaIS4_EE14_M_create_nodeIJRKSt21piecewise_construct_tSt5tupleIJRS1_EESF_IJEEEEEPSt13_Rb_tree_nodeIS4_EDpOT_>
    fe81:	48 89 45 c8          	mov    %rax,-0x38(%rbp)
    fe85:	48 8b 45 c8          	mov    -0x38(%rbp),%rax
    fe89:	48 89 c7             	mov    %rax,%rdi
    fe8c:	e8 00 0f 00 00       	callq  10d91 <_ZNSt8_Rb_treeIiSt4pairIKiP5StateESt10_Select1stIS4_ESt4lessIiESaIS4_EE6_S_keyEPKSt13_Rb_tree_nodeIS4_E>
    fe91:	48 89 c2             	mov    %rax,%rdx
    fe94:	48 8b 4d b0          	mov    -0x50(%rbp),%rcx
    fe98:	48 8b 45 b8          	mov    -0x48(%rbp),%rax
    fe9c:	48 89 ce             	mov    %rcx,%rsi
    fe9f:	48 89 c7             	mov    %rax,%rdi
    fea2:	e8 45 0b 00 00       	callq  109ec <_ZNSt8_Rb_treeIiSt4pairIKiP5StateESt10_Select1stIS4_ESt4lessIiESaIS4_EE29_M_get_insert_hint_unique_posESt23_Rb_tree_const_iteratorIS4_ERS1_>
    fea7:	48 89 45 d0          	mov    %rax,-0x30(%rbp)
    feab:	48 89 55 d8          	mov    %rdx,-0x28(%rbp)
    feaf:	48 8b 45 d8          	mov    -0x28(%rbp),%rax
    feb3:	48 85 c0             	test   %rax,%rax
    feb6:	74 1a                	je     fed2 <_ZNSt8_Rb_treeIiSt4pairIKiP5StateESt10_Select1stIS4_ESt4lessIiESaIS4_EE22_M_emplace_hint_uniqueIJRKSt21piecewise_construct_tSt5tupleIJRS1_EESF_IJEEEEESt17_Rb_tree_iteratorIS4_ESt23_Rb_tree_const_iteratorIS4_EDpOT_+0xbe>
    feb8:	48 8b 55 d8          	mov    -0x28(%rbp),%rdx
    febc:	48 8b 75 d0          	mov    -0x30(%rbp),%rsi
    fec0:	48 8b 4d c8          	mov    -0x38(%rbp),%rcx
    fec4:	48 8b 45 b8          	mov    -0x48(%rbp),%rax
    fec8:	48 89 c7             	mov    %rax,%rdi
    fecb:	e8 10 0f 00 00       	callq  10de0 <_ZNSt8_Rb_treeIiSt4pairIKiP5StateESt10_Select1stIS4_ESt4lessIiESaIS4_EE14_M_insert_nodeEPSt18_Rb_tree_node_baseSC_PSt13_Rb_tree_nodeIS4_E>
    fed0:	eb 2a                	jmp    fefc <_ZNSt8_Rb_treeIiSt4pairIKiP5StateESt10_Select1stIS4_ESt4lessIiESaIS4_EE22_M_emplace_hint_uniqueIJRKSt21piecewise_construct_tSt5tupleIJRS1_EESF_IJEEEEESt17_Rb_tree_iteratorIS4_ESt23_Rb_tree_const_iteratorIS4_EDpOT_+0xe8>
    fed2:	48 8b 55 c8          	mov    -0x38(%rbp),%rdx
    fed6:	48 8b 45 b8          	mov    -0x48(%rbp),%rax
    feda:	48 89 d6             	mov    %rdx,%rsi
    fedd:	48 89 c7             	mov    %rax,%rdi
    fee0:	e8 e1 0f 00 00       	callq  10ec6 <_ZNSt8_Rb_treeIiSt4pairIKiP5StateESt10_Select1stIS4_ESt4lessIiESaIS4_EE12_M_drop_nodeEPSt13_Rb_tree_nodeIS4_E>
    fee5:	48 8b 55 d0          	mov    -0x30(%rbp),%rdx
    fee9:	48 8d 45 c0          	lea    -0x40(%rbp),%rax
    feed:	48 89 d6             	mov    %rdx,%rsi
    fef0:	48 89 c7             	mov    %rax,%rdi
    fef3:	e8 08 10 00 00       	callq  10f00 <_ZNSt17_Rb_tree_iteratorISt4pairIKiP5StateEEC1EPSt18_Rb_tree_node_base>
    fef8:	48 8b 45 c0          	mov    -0x40(%rbp),%rax
    fefc:	48 8b 5d e8          	mov    -0x18(%rbp),%rbx
    ff00:	64 48 33 1c 25 28 00 	xor    %fs:0x28,%rbx
    ff07:	00 00 
    ff09:	74 3a                	je     ff45 <_ZNSt8_Rb_treeIiSt4pairIKiP5StateESt10_Select1stIS4_ESt4lessIiESaIS4_EE22_M_emplace_hint_uniqueIJRKSt21piecewise_construct_tSt5tupleIJRS1_EESF_IJEEEEESt17_Rb_tree_iteratorIS4_ESt23_Rb_tree_const_iteratorIS4_EDpOT_+0x131>
    ff0b:	eb 33                	jmp    ff40 <_ZNSt8_Rb_treeIiSt4pairIKiP5StateESt10_Select1stIS4_ESt4lessIiESaIS4_EE22_M_emplace_hint_uniqueIJRKSt21piecewise_construct_tSt5tupleIJRS1_EESF_IJEEEEESt17_Rb_tree_iteratorIS4_ESt23_Rb_tree_const_iteratorIS4_EDpOT_+0x12c>
    ff0d:	48 89 c7             	mov    %rax,%rdi
    ff10:	e8 bb d5 ff ff       	callq  d4d0 <__cxa_begin_catch@plt>
    ff15:	48 8b 55 c8          	mov    -0x38(%rbp),%rdx
    ff19:	48 8b 45 b8          	mov    -0x48(%rbp),%rax
    ff1d:	48 89 d6             	mov    %rdx,%rsi
    ff20:	48 89 c7             	mov    %rax,%rdi
    ff23:	e8 9e 0f 00 00       	callq  10ec6 <_ZNSt8_Rb_treeIiSt4pairIKiP5StateESt10_Select1stIS4_ESt4lessIiESaIS4_EE12_M_drop_nodeEPSt13_Rb_tree_nodeIS4_E>
    ff28:	e8 63 d8 ff ff       	callq  d790 <__cxa_rethrow@plt>
    ff2d:	48 89 c3             	mov    %rax,%rbx
    ff30:	e8 9b d8 ff ff       	callq  d7d0 <__cxa_end_catch@plt>
    ff35:	48 89 d8             	mov    %rbx,%rax
    ff38:	48 89 c7             	mov    %rax,%rdi
    ff3b:	e8 f0 d8 ff ff       	callq  d830 <_Unwind_Resume@plt>
    ff40:	e8 9b d7 ff ff       	callq  d6e0 <__stack_chk_fail@plt>
    ff45:	48 83 c4 60          	add    $0x60,%rsp
    ff49:	5b                   	pop    %rbx
    ff4a:	41 5c                	pop    %r12
    ff4c:	5d                   	pop    %rbp
    ff4d:	c3                   	retq   

000000000000ff4e <_ZNSt3mapIiP8AssemblySt4lessIiESaISt4pairIKiS1_EEE11lower_boundERS5_>:
    ff4e:	55                   	push   %rbp
    ff4f:	48 89 e5             	mov    %rsp,%rbp
    ff52:	48 83 ec 10          	sub    $0x10,%rsp
    ff56:	48 89 7d f8          	mov    %rdi,-0x8(%rbp)
    ff5a:	48 89 75 f0          	mov    %rsi,-0x10(%rbp)
    ff5e:	48 8b 45 f8          	mov    -0x8(%rbp),%rax
    ff62:	48 8b 55 f0          	mov    -0x10(%rbp),%rdx
    ff66:	48 89 d6             	mov    %rdx,%rsi
    ff69:	48 89 c7             	mov    %rax,%rdi
    ff6c:	e8 a9 0f 00 00       	callq  10f1a <_ZNSt8_Rb_treeIiSt4pairIKiP8AssemblyESt10_Select1stIS4_ESt4lessIiESaIS4_EE11lower_boundERS1_>
    ff71:	c9                   	leaveq 
    ff72:	c3                   	retq   
    ff73:	90                   	nop

000000000000ff74 <_ZNSt3mapIiP8AssemblySt4lessIiESaISt4pairIKiS1_EEE3endEv>:
    ff74:	55                   	push   %rbp
    ff75:	48 89 e5             	mov    %rsp,%rbp
    ff78:	48 83 ec 10          	sub    $0x10,%rsp
    ff7c:	48 89 7d f8          	mov    %rdi,-0x8(%rbp)
    ff80:	48 8b 45 f8          	mov    -0x8(%rbp),%rax
    ff84:	48 89 c7             	mov    %rax,%rdi
    ff87:	e8 da 0f 00 00       	callq  10f66 <_ZNSt8_Rb_treeIiSt4pairIKiP8AssemblyESt10_Select1stIS4_ESt4lessIiESaIS4_EE3endEv>
    ff8c:	c9                   	leaveq 
    ff8d:	c3                   	retq   

000000000000ff8e <_ZNKSt17_Rb_tree_iteratorISt4pairIKiP8AssemblyEEeqERKS5_>:
    ff8e:	55                   	push   %rbp
    ff8f:	48 89 e5             	mov    %rsp,%rbp
    ff92:	48 89 7d f8          	mov    %rdi,-0x8(%rbp)
    ff96:	48 89 75 f0          	mov    %rsi,-0x10(%rbp)
    ff9a:	48 8b 45 f8          	mov    -0x8(%rbp),%rax
    ff9e:	48 8b 10             	mov    (%rax),%rdx
    ffa1:	48 8b 45 f0          	mov    -0x10(%rbp),%rax
    ffa5:	48 8b 00             	mov    (%rax),%rax
    ffa8:	48 39 c2             	cmp    %rax,%rdx
    ffab:	0f 94 c0             	sete   %al
    ffae:	5d                   	pop    %rbp
    ffaf:	c3                   	retq   

000000000000ffb0 <_ZNKSt3mapIiP8AssemblySt4lessIiESaISt4pairIKiS1_EEE8key_compEv>:
    ffb0:	55                   	push   %rbp
    ffb1:	48 89 e5             	mov    %rsp,%rbp
    ffb4:	53                   	push   %rbx
    ffb5:	48 83 ec 18          	sub    $0x18,%rsp
    ffb9:	48 89 7d e8          	mov    %rdi,-0x18(%rbp)
    ffbd:	48 8b 45 e8          	mov    -0x18(%rbp),%rax
    ffc1:	48 89 c7             	mov    %rax,%rdi
    ffc4:	e8 e9 0f 00 00       	callq  10fb2 <_ZNKSt8_Rb_treeIiSt4pairIKiP8AssemblyESt10_Select1stIS4_ESt4lessIiESaIS4_EE8key_compEv>
    ffc9:	89 d8                	mov    %ebx,%eax
    ffcb:	48 83 c4 18          	add    $0x18,%rsp
    ffcf:	5b                   	pop    %rbx
    ffd0:	5d                   	pop    %rbp
    ffd1:	c3                   	retq   

000000000000ffd2 <_ZNKSt17_Rb_tree_iteratorISt4pairIKiP8AssemblyEEdeEv>:
    ffd2:	55                   	push   %rbp
    ffd3:	48 89 e5             	mov    %rsp,%rbp
    ffd6:	48 83 ec 10          	sub    $0x10,%rsp
    ffda:	48 89 7d f8          	mov    %rdi,-0x8(%rbp)
    ffde:	48 8b 45 f8          	mov    -0x8(%rbp),%rax
    ffe2:	48 8b 00             	mov    (%rax),%rax
    ffe5:	48 89 c7             	mov    %rax,%rdi
    ffe8:	e8 cf 0f 00 00       	callq  10fbc <_ZNSt13_Rb_tree_nodeISt4pairIKiP8AssemblyEE9_M_valptrEv>
    ffed:	c9                   	leaveq 
    ffee:	c3                   	retq   
    ffef:	90                   	nop

000000000000fff0 <_ZNSt23_Rb_tree_const_iteratorISt4pairIKiP8AssemblyEEC1ERKSt17_Rb_tree_iteratorIS4_E>:
    fff0:	55                   	push   %rbp
    fff1:	48 89 e5             	mov    %rsp,%rbp
    fff4:	48 89 7d f8          	mov    %rdi,-0x8(%rbp)
    fff8:	48 89 75 f0          	mov    %rsi,-0x10(%rbp)
    fffc:	48 8b 45 f0          	mov    -0x10(%rbp),%rax
   10000:	48 8b 10             	mov    (%rax),%rdx
   10003:	48 8b 45 f8          	mov    -0x8(%rbp),%rax
   10007:	48 89 10             	mov    %rdx,(%rax)
   1000a:	90                   	nop
   1000b:	5d                   	pop    %rbp
   1000c:	c3                   	retq   
   1000d:	90                   	nop

000000000001000e <_ZNSt8_Rb_treeIiSt4pairIKiP8AssemblyESt10_Select1stIS4_ESt4lessIiESaIS4_EE22_M_emplace_hint_uniqueIJRKSt21piecewise_construct_tSt5tupleIJRS1_EESF_IJEEEEESt17_Rb_tree_iteratorIS4_ESt23_Rb_tree_const_iteratorIS4_EDpOT_>:
   1000e:	55                   	push   %rbp
   1000f:	48 89 e5             	mov    %rsp,%rbp
   10012:	41 54                	push   %r12
   10014:	53                   	push   %rbx
   10015:	48 83 ec 60          	sub    $0x60,%rsp
   10019:	48 89 7d b8          	mov    %rdi,-0x48(%rbp)
   1001d:	48 89 75 b0          	mov    %rsi,-0x50(%rbp)
   10021:	48 89 55 a8          	mov    %rdx,-0x58(%rbp)
   10025:	48 89 4d a0          	mov    %rcx,-0x60(%rbp)
   10029:	4c 89 45 98          	mov    %r8,-0x68(%rbp)
   1002d:	64 48 8b 04 25 28 00 	mov    %fs:0x28,%rax
   10034:	00 00 
   10036:	48 89 45 e8          	mov    %rax,-0x18(%rbp)
   1003a:	31 c0                	xor    %eax,%eax
   1003c:	48 8b 45 98          	mov    -0x68(%rbp),%rax
   10040:	48 89 c7             	mov    %rax,%rdi
   10043:	e8 bd fd ff ff       	callq  fe05 <_ZSt7forwardISt5tupleIJEEEOT_RNSt16remove_referenceIS2_E4typeE>
   10048:	49 89 c4             	mov    %rax,%r12
   1004b:	48 8b 45 a0          	mov    -0x60(%rbp),%rax
   1004f:	48 89 c7             	mov    %rax,%rdi
   10052:	e8 a0 fd ff ff       	callq  fdf7 <_ZSt7forwardISt5tupleIJRKiEEEOT_RNSt16remove_referenceIS4_E4typeE>
   10057:	48 89 c3             	mov    %rax,%rbx
   1005a:	48 8b 45 a8          	mov    -0x58(%rbp),%rax
   1005e:	48 89 c7             	mov    %rax,%rdi
   10061:	e8 83 fd ff ff       	callq  fde9 <_ZSt7forwardIRKSt21piecewise_construct_tEOT_RNSt16remove_referenceIS3_E4typeE>
   10066:	48 89 c6             	mov    %rax,%rsi
   10069:	48 8b 45 b8          	mov    -0x48(%rbp),%rax
   1006d:	4c 89 e1             	mov    %r12,%rcx
   10070:	48 89 da             	mov    %rbx,%rdx
   10073:	48 89 c7             	mov    %rax,%rdi
   10076:	e8 5f 0f 00 00       	callq  10fda <_ZNSt8_Rb_treeIiSt4pairIKiP8AssemblyESt10_Select1stIS4_ESt4lessIiESaIS4_EE14_M_create_nodeIJRKSt21piecewise_construct_tSt5tupleIJRS1_EESF_IJEEEEEPSt13_Rb_tree_nodeIS4_EDpOT_>
   1007b:	48 89 45 c8          	mov    %rax,-0x38(%rbp)
   1007f:	48 8b 45 c8          	mov    -0x38(%rbp),%rax
   10083:	48 89 c7             	mov    %rax,%rdi
   10086:	e8 70 13 00 00       	callq  113fb <_ZNSt8_Rb_treeIiSt4pairIKiP8AssemblyESt10_Select1stIS4_ESt4lessIiESaIS4_EE6_S_keyEPKSt13_Rb_tree_nodeIS4_E>
   1008b:	48 89 c2             	mov    %rax,%rdx
   1008e:	48 8b 4d b0          	mov    -0x50(%rbp),%rcx
   10092:	48 8b 45 b8          	mov    -0x48(%rbp),%rax
   10096:	48 89 ce             	mov    %rcx,%rsi
   10099:	48 89 c7             	mov    %rax,%rdi
   1009c:	e8 b5 0f 00 00       	callq  11056 <_ZNSt8_Rb_treeIiSt4pairIKiP8AssemblyESt10_Select1stIS4_ESt4lessIiESaIS4_EE29_M_get_insert_hint_unique_posESt23_Rb_tree_const_iteratorIS4_ERS1_>
   100a1:	48 89 45 d0          	mov    %rax,-0x30(%rbp)
   100a5:	48 89 55 d8          	mov    %rdx,-0x28(%rbp)
   100a9:	48 8b 45 d8          	mov    -0x28(%rbp),%rax
   100ad:	48 85 c0             	test   %rax,%rax
   100b0:	74 1a                	je     100cc <_ZNSt8_Rb_treeIiSt4pairIKiP8AssemblyESt10_Select1stIS4_ESt4lessIiESaIS4_EE22_M_emplace_hint_uniqueIJRKSt21piecewise_construct_tSt5tupleIJRS1_EESF_IJEEEEESt17_Rb_tree_iteratorIS4_ESt23_Rb_tree_const_iteratorIS4_EDpOT_+0xbe>
   100b2:	48 8b 55 d8          	mov    -0x28(%rbp),%rdx
   100b6:	48 8b 75 d0          	mov    -0x30(%rbp),%rsi
   100ba:	48 8b 4d c8          	mov    -0x38(%rbp),%rcx
   100be:	48 8b 45 b8          	mov    -0x48(%rbp),%rax
   100c2:	48 89 c7             	mov    %rax,%rdi
   100c5:	e8 80 13 00 00       	callq  1144a <_ZNSt8_Rb_treeIiSt4pairIKiP8AssemblyESt10_Select1stIS4_ESt4lessIiESaIS4_EE14_M_insert_nodeEPSt18_Rb_tree_node_baseSC_PSt13_Rb_tree_nodeIS4_E>
   100ca:	eb 2a                	jmp    100f6 <_ZNSt8_Rb_treeIiSt4pairIKiP8AssemblyESt10_Select1stIS4_ESt4lessIiESaIS4_EE22_M_emplace_hint_uniqueIJRKSt21piecewise_construct_tSt5tupleIJRS1_EESF_IJEEEEESt17_Rb_tree_iteratorIS4_ESt23_Rb_tree_const_iteratorIS4_EDpOT_+0xe8>
   100cc:	48 8b 55 c8          	mov    -0x38(%rbp),%rdx
   100d0:	48 8b 45 b8          	mov    -0x48(%rbp),%rax
   100d4:	48 89 d6             	mov    %rdx,%rsi
   100d7:	48 89 c7             	mov    %rax,%rdi
   100da:	e8 51 14 00 00       	callq  11530 <_ZNSt8_Rb_treeIiSt4pairIKiP8AssemblyESt10_Select1stIS4_ESt4lessIiESaIS4_EE12_M_drop_nodeEPSt13_Rb_tree_nodeIS4_E>
   100df:	48 8b 55 d0          	mov    -0x30(%rbp),%rdx
   100e3:	48 8d 45 c0          	lea    -0x40(%rbp),%rax
   100e7:	48 89 d6             	mov    %rdx,%rsi
   100ea:	48 89 c7             	mov    %rax,%rdi
   100ed:	e8 78 14 00 00       	callq  1156a <_ZNSt17_Rb_tree_iteratorISt4pairIKiP8AssemblyEEC1EPSt18_Rb_tree_node_base>
   100f2:	48 8b 45 c0          	mov    -0x40(%rbp),%rax
   100f6:	48 8b 5d e8          	mov    -0x18(%rbp),%rbx
   100fa:	64 48 33 1c 25 28 00 	xor    %fs:0x28,%rbx
   10101:	00 00 
   10103:	74 3a                	je     1013f <_ZNSt8_Rb_treeIiSt4pairIKiP8AssemblyESt10_Select1stIS4_ESt4lessIiESaIS4_EE22_M_emplace_hint_uniqueIJRKSt21piecewise_construct_tSt5tupleIJRS1_EESF_IJEEEEESt17_Rb_tree_iteratorIS4_ESt23_Rb_tree_const_iteratorIS4_EDpOT_+0x131>
   10105:	eb 33                	jmp    1013a <_ZNSt8_Rb_treeIiSt4pairIKiP8AssemblyESt10_Select1stIS4_ESt4lessIiESaIS4_EE22_M_emplace_hint_uniqueIJRKSt21piecewise_construct_tSt5tupleIJRS1_EESF_IJEEEEESt17_Rb_tree_iteratorIS4_ESt23_Rb_tree_const_iteratorIS4_EDpOT_+0x12c>
   10107:	48 89 c7             	mov    %rax,%rdi
   1010a:	e8 c1 d3 ff ff       	callq  d4d0 <__cxa_begin_catch@plt>
   1010f:	48 8b 55 c8          	mov    -0x38(%rbp),%rdx
   10113:	48 8b 45 b8          	mov    -0x48(%rbp),%rax
   10117:	48 89 d6             	mov    %rdx,%rsi
   1011a:	48 89 c7             	mov    %rax,%rdi
   1011d:	e8 0e 14 00 00       	callq  11530 <_ZNSt8_Rb_treeIiSt4pairIKiP8AssemblyESt10_Select1stIS4_ESt4lessIiESaIS4_EE12_M_drop_nodeEPSt13_Rb_tree_nodeIS4_E>
   10122:	e8 69 d6 ff ff       	callq  d790 <__cxa_rethrow@plt>
   10127:	48 89 c3             	mov    %rax,%rbx
   1012a:	e8 a1 d6 ff ff       	callq  d7d0 <__cxa_end_catch@plt>
   1012f:	48 89 d8             	mov    %rbx,%rax
   10132:	48 89 c7             	mov    %rax,%rdi
   10135:	e8 f6 d6 ff ff       	callq  d830 <_Unwind_Resume@plt>
   1013a:	e8 a1 d5 ff ff       	callq  d6e0 <__stack_chk_fail@plt>
   1013f:	48 83 c4 60          	add    $0x60,%rsp
   10143:	5b                   	pop    %rbx
   10144:	41 5c                	pop    %r12
   10146:	5d                   	pop    %rbp
   10147:	c3                   	retq   

0000000000010148 <_ZNSaISt13_Rb_tree_nodeISt4pairIKiP5VoterEEED1Ev>:
   10148:	55                   	push   %rbp
   10149:	48 89 e5             	mov    %rsp,%rbp
   1014c:	48 83 ec 10          	sub    $0x10,%rsp
   10150:	48 89 7d f8          	mov    %rdi,-0x8(%rbp)
   10154:	48 8b 45 f8          	mov    -0x8(%rbp),%rax
   10158:	48 89 c7             	mov    %rax,%rdi
   1015b:	e8 24 14 00 00       	callq  11584 <_ZN9__gnu_cxx13new_allocatorISt13_Rb_tree_nodeISt4pairIKiP5VoterEEED1Ev>
   10160:	90                   	nop
   10161:	c9                   	leaveq 
   10162:	c3                   	retq   
   10163:	90                   	nop

0000000000010164 <_ZNSt8_Rb_treeIiSt4pairIKiP5VoterESt10_Select1stIS4_ESt4lessIiESaIS4_EE8_M_eraseEPSt13_Rb_tree_nodeIS4_E>:
   10164:	55                   	push   %rbp
   10165:	48 89 e5             	mov    %rsp,%rbp
   10168:	48 83 ec 20          	sub    $0x20,%rsp
   1016c:	48 89 7d e8          	mov    %rdi,-0x18(%rbp)
   10170:	48 89 75 e0          	mov    %rsi,-0x20(%rbp)
   10174:	48 83 7d e0 00       	cmpq   $0x0,-0x20(%rbp)
   10179:	74 4b                	je     101c6 <_ZNSt8_Rb_treeIiSt4pairIKiP5VoterESt10_Select1stIS4_ESt4lessIiESaIS4_EE8_M_eraseEPSt13_Rb_tree_nodeIS4_E+0x62>
   1017b:	48 8b 45 e0          	mov    -0x20(%rbp),%rax
   1017f:	48 89 c7             	mov    %rax,%rdi
   10182:	e8 08 14 00 00       	callq  1158f <_ZNSt8_Rb_treeIiSt4pairIKiP5VoterESt10_Select1stIS4_ESt4lessIiESaIS4_EE8_S_rightEPSt18_Rb_tree_node_base>
   10187:	48 89 c2             	mov    %rax,%rdx
   1018a:	48 8b 45 e8          	mov    -0x18(%rbp),%rax
   1018e:	48 89 d6             	mov    %rdx,%rsi
   10191:	48 89 c7             	mov    %rax,%rdi
   10194:	e8 cb ff ff ff       	callq  10164 <_ZNSt8_Rb_treeIiSt4pairIKiP5VoterESt10_Select1stIS4_ESt4lessIiESaIS4_EE8_M_eraseEPSt13_Rb_tree_nodeIS4_E>
   10199:	48 8b 45 e0          	mov    -0x20(%rbp),%rax
   1019d:	48 89 c7             	mov    %rax,%rdi
   101a0:	e8 fc 13 00 00       	callq  115a1 <_ZNSt8_Rb_treeIiSt4pairIKiP5VoterESt10_Select1stIS4_ESt4lessIiESaIS4_EE7_S_leftEPSt18_Rb_tree_node_base>
   101a5:	48 89 45 f8          	mov    %rax,-0x8(%rbp)
   101a9:	48 8b 55 e0          	mov    -0x20(%rbp),%rdx
   101ad:	48 8b 45 e8          	mov    -0x18(%rbp),%rax
   101b1:	48 89 d6             	mov    %rdx,%rsi
   101b4:	48 89 c7             	mov    %rax,%rdi
   101b7:	e8 f8 13 00 00       	callq  115b4 <_ZNSt8_Rb_treeIiSt4pairIKiP5VoterESt10_Select1stIS4_ESt4lessIiESaIS4_EE12_M_drop_nodeEPSt13_Rb_tree_nodeIS4_E>
   101bc:	48 8b 45 f8          	mov    -0x8(%rbp),%rax
   101c0:	48 89 45 e0          	mov    %rax,-0x20(%rbp)
   101c4:	eb ae                	jmp    10174 <_ZNSt8_Rb_treeIiSt4pairIKiP5VoterESt10_Select1stIS4_ESt4lessIiESaIS4_EE8_M_eraseEPSt13_Rb_tree_nodeIS4_E+0x10>
   101c6:	90                   	nop
   101c7:	c9                   	leaveq 
   101c8:	c3                   	retq   
   101c9:	90                   	nop

00000000000101ca <_ZNSt8_Rb_treeIiSt4pairIKiP5VoterESt10_Select1stIS4_ESt4lessIiESaIS4_EE8_M_beginEv>:
   101ca:	55                   	push   %rbp
   101cb:	48 89 e5             	mov    %rsp,%rbp
   101ce:	48 89 7d f8          	mov    %rdi,-0x8(%rbp)
   101d2:	48 8b 45 f8          	mov    -0x8(%rbp),%rax
   101d6:	48 8b 40 10          	mov    0x10(%rax),%rax
   101da:	5d                   	pop    %rbp
   101db:	c3                   	retq   

00000000000101dc <_ZNSt3mapIiP5VoterSt4lessIiESaISt4pairIKiS1_EEE11lower_boundERS5_>:
   101dc:	55                   	push   %rbp
   101dd:	48 89 e5             	mov    %rsp,%rbp
   101e0:	48 83 ec 10          	sub    $0x10,%rsp
   101e4:	48 89 7d f8          	mov    %rdi,-0x8(%rbp)
   101e8:	48 89 75 f0          	mov    %rsi,-0x10(%rbp)
   101ec:	48 8b 45 f8          	mov    -0x8(%rbp),%rax
   101f0:	48 8b 55 f0          	mov    -0x10(%rbp),%rdx
   101f4:	48 89 d6             	mov    %rdx,%rsi
   101f7:	48 89 c7             	mov    %rax,%rdi
   101fa:	e8 ef 13 00 00       	callq  115ee <_ZNSt8_Rb_treeIiSt4pairIKiP5VoterESt10_Select1stIS4_ESt4lessIiESaIS4_EE11lower_boundERS1_>
   101ff:	c9                   	leaveq 
   10200:	c3                   	retq   
   10201:	90                   	nop

0000000000010202 <_ZNSt3mapIiP5VoterSt4lessIiESaISt4pairIKiS1_EEE3endEv>:
   10202:	55                   	push   %rbp
   10203:	48 89 e5             	mov    %rsp,%rbp
   10206:	48 83 ec 10          	sub    $0x10,%rsp
   1020a:	48 89 7d f8          	mov    %rdi,-0x8(%rbp)
   1020e:	48 8b 45 f8          	mov    -0x8(%rbp),%rax
   10212:	48 89 c7             	mov    %rax,%rdi
   10215:	e8 20 14 00 00       	callq  1163a <_ZNSt8_Rb_treeIiSt4pairIKiP5VoterESt10_Select1stIS4_ESt4lessIiESaIS4_EE3endEv>
   1021a:	c9                   	leaveq 
   1021b:	c3                   	retq   

000000000001021c <_ZNKSt17_Rb_tree_iteratorISt4pairIKiP5VoterEEeqERKS5_>:
   1021c:	55                   	push   %rbp
   1021d:	48 89 e5             	mov    %rsp,%rbp
   10220:	48 89 7d f8          	mov    %rdi,-0x8(%rbp)
   10224:	48 89 75 f0          	mov    %rsi,-0x10(%rbp)
   10228:	48 8b 45 f8          	mov    -0x8(%rbp),%rax
   1022c:	48 8b 10             	mov    (%rax),%rdx
   1022f:	48 8b 45 f0          	mov    -0x10(%rbp),%rax
   10233:	48 8b 00             	mov    (%rax),%rax
   10236:	48 39 c2             	cmp    %rax,%rdx
   10239:	0f 94 c0             	sete   %al
   1023c:	5d                   	pop    %rbp
   1023d:	c3                   	retq   

000000000001023e <_ZNKSt3mapIiP5VoterSt4lessIiESaISt4pairIKiS1_EEE8key_compEv>:
   1023e:	55                   	push   %rbp
   1023f:	48 89 e5             	mov    %rsp,%rbp
   10242:	53                   	push   %rbx
   10243:	48 83 ec 18          	sub    $0x18,%rsp
   10247:	48 89 7d e8          	mov    %rdi,-0x18(%rbp)
   1024b:	48 8b 45 e8          	mov    -0x18(%rbp),%rax
   1024f:	48 89 c7             	mov    %rax,%rdi
   10252:	e8 2f 14 00 00       	callq  11686 <_ZNKSt8_Rb_treeIiSt4pairIKiP5VoterESt10_Select1stIS4_ESt4lessIiESaIS4_EE8key_compEv>
   10257:	89 d8                	mov    %ebx,%eax
   10259:	48 83 c4 18          	add    $0x18,%rsp
   1025d:	5b                   	pop    %rbx
   1025e:	5d                   	pop    %rbp
   1025f:	c3                   	retq   

0000000000010260 <_ZNKSt17_Rb_tree_iteratorISt4pairIKiP5VoterEEdeEv>:
   10260:	55                   	push   %rbp
   10261:	48 89 e5             	mov    %rsp,%rbp
   10264:	48 83 ec 10          	sub    $0x10,%rsp
   10268:	48 89 7d f8          	mov    %rdi,-0x8(%rbp)
   1026c:	48 8b 45 f8          	mov    -0x8(%rbp),%rax
   10270:	48 8b 00             	mov    (%rax),%rax
   10273:	48 89 c7             	mov    %rax,%rdi
   10276:	e8 15 14 00 00       	callq  11690 <_ZNSt13_Rb_tree_nodeISt4pairIKiP5VoterEE9_M_valptrEv>
   1027b:	c9                   	leaveq 
   1027c:	c3                   	retq   
   1027d:	90                   	nop

000000000001027e <_ZNSt23_Rb_tree_const_iteratorISt4pairIKiP5VoterEEC1ERKSt17_Rb_tree_iteratorIS4_E>:
   1027e:	55                   	push   %rbp
   1027f:	48 89 e5             	mov    %rsp,%rbp
   10282:	48 89 7d f8          	mov    %rdi,-0x8(%rbp)
   10286:	48 89 75 f0          	mov    %rsi,-0x10(%rbp)
   1028a:	48 8b 45 f0          	mov    -0x10(%rbp),%rax
   1028e:	48 8b 10             	mov    (%rax),%rdx
   10291:	48 8b 45 f8          	mov    -0x8(%rbp),%rax
   10295:	48 89 10             	mov    %rdx,(%rax)
   10298:	90                   	nop
   10299:	5d                   	pop    %rbp
   1029a:	c3                   	retq   
   1029b:	90                   	nop

000000000001029c <_ZNSt8_Rb_treeIiSt4pairIKiP5VoterESt10_Select1stIS4_ESt4lessIiESaIS4_EE22_M_emplace_hint_uniqueIJRKSt21piecewise_construct_tSt5tupleIJRS1_EESF_IJEEEEESt17_Rb_tree_iteratorIS4_ESt23_Rb_tree_const_iteratorIS4_EDpOT_>:
   1029c:	55                   	push   %rbp
   1029d:	48 89 e5             	mov    %rsp,%rbp
   102a0:	41 54                	push   %r12
   102a2:	53                   	push   %rbx
   102a3:	48 83 ec 60          	sub    $0x60,%rsp
   102a7:	48 89 7d b8          	mov    %rdi,-0x48(%rbp)
   102ab:	48 89 75 b0          	mov    %rsi,-0x50(%rbp)
   102af:	48 89 55 a8          	mov    %rdx,-0x58(%rbp)
   102b3:	48 89 4d a0          	mov    %rcx,-0x60(%rbp)
   102b7:	4c 89 45 98          	mov    %r8,-0x68(%rbp)
   102bb:	64 48 8b 04 25 28 00 	mov    %fs:0x28,%rax
   102c2:	00 00 
   102c4:	48 89 45 e8          	mov    %rax,-0x18(%rbp)
   102c8:	31 c0                	xor    %eax,%eax
   102ca:	48 8b 45 98          	mov    -0x68(%rbp),%rax
   102ce:	48 89 c7             	mov    %rax,%rdi
   102d1:	e8 2f fb ff ff       	callq  fe05 <_ZSt7forwardISt5tupleIJEEEOT_RNSt16remove_referenceIS2_E4typeE>
   102d6:	49 89 c4             	mov    %rax,%r12
   102d9:	48 8b 45 a0          	mov    -0x60(%rbp),%rax
   102dd:	48 89 c7             	mov    %rax,%rdi
   102e0:	e8 12 fb ff ff       	callq  fdf7 <_ZSt7forwardISt5tupleIJRKiEEEOT_RNSt16remove_referenceIS4_E4typeE>
   102e5:	48 89 c3             	mov    %rax,%rbx
   102e8:	48 8b 45 a8          	mov    -0x58(%rbp),%rax
   102ec:	48 89 c7             	mov    %rax,%rdi
   102ef:	e8 f5 fa ff ff       	callq  fde9 <_ZSt7forwardIRKSt21piecewise_construct_tEOT_RNSt16remove_referenceIS3_E4typeE>
   102f4:	48 89 c6             	mov    %rax,%rsi
   102f7:	48 8b 45 b8          	mov    -0x48(%rbp),%rax
   102fb:	4c 89 e1             	mov    %r12,%rcx
   102fe:	48 89 da             	mov    %rbx,%rdx
   10301:	48 89 c7             	mov    %rax,%rdi
   10304:	e8 a5 13 00 00       	callq  116ae <_ZNSt8_Rb_treeIiSt4pairIKiP5VoterESt10_Select1stIS4_ESt4lessIiESaIS4_EE14_M_create_nodeIJRKSt21piecewise_construct_tSt5tupleIJRS1_EESF_IJEEEEEPSt13_Rb_tree_nodeIS4_EDpOT_>
   10309:	48 89 45 c8          	mov    %rax,-0x38(%rbp)
   1030d:	48 8b 45 c8          	mov    -0x38(%rbp),%rax
   10311:	48 89 c7             	mov    %rax,%rdi
   10314:	e8 b6 17 00 00       	callq  11acf <_ZNSt8_Rb_treeIiSt4pairIKiP5VoterESt10_Select1stIS4_ESt4lessIiESaIS4_EE6_S_keyEPKSt13_Rb_tree_nodeIS4_E>
   10319:	48 89 c2             	mov    %rax,%rdx
   1031c:	48 8b 4d b0          	mov    -0x50(%rbp),%rcx
   10320:	48 8b 45 b8          	mov    -0x48(%rbp),%rax
   10324:	48 89 ce             	mov    %rcx,%rsi
   10327:	48 89 c7             	mov    %rax,%rdi
   1032a:	e8 fb 13 00 00       	callq  1172a <_ZNSt8_Rb_treeIiSt4pairIKiP5VoterESt10_Select1stIS4_ESt4lessIiESaIS4_EE29_M_get_insert_hint_unique_posESt23_Rb_tree_const_iteratorIS4_ERS1_>
   1032f:	48 89 45 d0          	mov    %rax,-0x30(%rbp)
   10333:	48 89 55 d8          	mov    %rdx,-0x28(%rbp)
   10337:	48 8b 45 d8          	mov    -0x28(%rbp),%rax
   1033b:	48 85 c0             	test   %rax,%rax
   1033e:	74 1a                	je     1035a <_ZNSt8_Rb_treeIiSt4pairIKiP5VoterESt10_Select1stIS4_ESt4lessIiESaIS4_EE22_M_emplace_hint_uniqueIJRKSt21piecewise_construct_tSt5tupleIJRS1_EESF_IJEEEEESt17_Rb_tree_iteratorIS4_ESt23_Rb_tree_const_iteratorIS4_EDpOT_+0xbe>
   10340:	48 8b 55 d8          	mov    -0x28(%rbp),%rdx
   10344:	48 8b 75 d0          	mov    -0x30(%rbp),%rsi
   10348:	48 8b 4d c8          	mov    -0x38(%rbp),%rcx
   1034c:	48 8b 45 b8          	mov    -0x48(%rbp),%rax
   10350:	48 89 c7             	mov    %rax,%rdi
   10353:	e8 c6 17 00 00       	callq  11b1e <_ZNSt8_Rb_treeIiSt4pairIKiP5VoterESt10_Select1stIS4_ESt4lessIiESaIS4_EE14_M_insert_nodeEPSt18_Rb_tree_node_baseSC_PSt13_Rb_tree_nodeIS4_E>
   10358:	eb 2a                	jmp    10384 <_ZNSt8_Rb_treeIiSt4pairIKiP5VoterESt10_Select1stIS4_ESt4lessIiESaIS4_EE22_M_emplace_hint_uniqueIJRKSt21piecewise_construct_tSt5tupleIJRS1_EESF_IJEEEEESt17_Rb_tree_iteratorIS4_ESt23_Rb_tree_const_iteratorIS4_EDpOT_+0xe8>
   1035a:	48 8b 55 c8          	mov    -0x38(%rbp),%rdx
   1035e:	48 8b 45 b8          	mov    -0x48(%rbp),%rax
   10362:	48 89 d6             	mov    %rdx,%rsi
   10365:	48 89 c7             	mov    %rax,%rdi
   10368:	e8 47 12 00 00       	callq  115b4 <_ZNSt8_Rb_treeIiSt4pairIKiP5VoterESt10_Select1stIS4_ESt4lessIiESaIS4_EE12_M_drop_nodeEPSt13_Rb_tree_nodeIS4_E>
   1036d:	48 8b 55 d0          	mov    -0x30(%rbp),%rdx
   10371:	48 8d 45 c0          	lea    -0x40(%rbp),%rax
   10375:	48 89 d6             	mov    %rdx,%rsi
   10378:	48 89 c7             	mov    %rax,%rdi
   1037b:	e8 84 18 00 00       	callq  11c04 <_ZNSt17_Rb_tree_iteratorISt4pairIKiP5VoterEEC1EPSt18_Rb_tree_node_base>
   10380:	48 8b 45 c0          	mov    -0x40(%rbp),%rax
   10384:	48 8b 5d e8          	mov    -0x18(%rbp),%rbx
   10388:	64 48 33 1c 25 28 00 	xor    %fs:0x28,%rbx
   1038f:	00 00 
   10391:	74 3a                	je     103cd <_ZNSt8_Rb_treeIiSt4pairIKiP5VoterESt10_Select1stIS4_ESt4lessIiESaIS4_EE22_M_emplace_hint_uniqueIJRKSt21piecewise_construct_tSt5tupleIJRS1_EESF_IJEEEEESt17_Rb_tree_iteratorIS4_ESt23_Rb_tree_const_iteratorIS4_EDpOT_+0x131>
   10393:	eb 33                	jmp    103c8 <_ZNSt8_Rb_treeIiSt4pairIKiP5VoterESt10_Select1stIS4_ESt4lessIiESaIS4_EE22_M_emplace_hint_uniqueIJRKSt21piecewise_construct_tSt5tupleIJRS1_EESF_IJEEEEESt17_Rb_tree_iteratorIS4_ESt23_Rb_tree_const_iteratorIS4_EDpOT_+0x12c>
   10395:	48 89 c7             	mov    %rax,%rdi
   10398:	e8 33 d1 ff ff       	callq  d4d0 <__cxa_begin_catch@plt>
   1039d:	48 8b 55 c8          	mov    -0x38(%rbp),%rdx
   103a1:	48 8b 45 b8          	mov    -0x48(%rbp),%rax
   103a5:	48 89 d6             	mov    %rdx,%rsi
   103a8:	48 89 c7             	mov    %rax,%rdi
   103ab:	e8 04 12 00 00       	callq  115b4 <_ZNSt8_Rb_treeIiSt4pairIKiP5VoterESt10_Select1stIS4_ESt4lessIiESaIS4_EE12_M_drop_nodeEPSt13_Rb_tree_nodeIS4_E>
   103b0:	e8 db d3 ff ff       	callq  d790 <__cxa_rethrow@plt>
   103b5:	48 89 c3             	mov    %rax,%rbx
   103b8:	e8 13 d4 ff ff       	callq  d7d0 <__cxa_end_catch@plt>
   103bd:	48 89 d8             	mov    %rbx,%rax
   103c0:	48 89 c7             	mov    %rax,%rdi
   103c3:	e8 68 d4 ff ff       	callq  d830 <_Unwind_Resume@plt>
   103c8:	e8 13 d3 ff ff       	callq  d6e0 <__stack_chk_fail@plt>
   103cd:	48 83 c4 60          	add    $0x60,%rsp
   103d1:	5b                   	pop    %rbx
   103d2:	41 5c                	pop    %r12
   103d4:	5d                   	pop    %rbp
   103d5:	c3                   	retq   

00000000000103d6 <_ZNSaISt13_Rb_tree_nodeISt4pairIKiP9CandidateEEED1Ev>:
   103d6:	55                   	push   %rbp
   103d7:	48 89 e5             	mov    %rsp,%rbp
   103da:	48 83 ec 10          	sub    $0x10,%rsp
   103de:	48 89 7d f8          	mov    %rdi,-0x8(%rbp)
   103e2:	48 8b 45 f8          	mov    -0x8(%rbp),%rax
   103e6:	48 89 c7             	mov    %rax,%rdi
   103e9:	e8 30 18 00 00       	callq  11c1e <_ZN9__gnu_cxx13new_allocatorISt13_Rb_tree_nodeISt4pairIKiP9CandidateEEED1Ev>
   103ee:	90                   	nop
   103ef:	c9                   	leaveq 
   103f0:	c3                   	retq   
   103f1:	90                   	nop

00000000000103f2 <_ZNSt8_Rb_treeIiSt4pairIKiP9CandidateESt10_Select1stIS4_ESt4lessIiESaIS4_EE8_M_eraseEPSt13_Rb_tree_nodeIS4_E>:
   103f2:	55                   	push   %rbp
   103f3:	48 89 e5             	mov    %rsp,%rbp
   103f6:	48 83 ec 20          	sub    $0x20,%rsp
   103fa:	48 89 7d e8          	mov    %rdi,-0x18(%rbp)
   103fe:	48 89 75 e0          	mov    %rsi,-0x20(%rbp)
   10402:	48 83 7d e0 00       	cmpq   $0x0,-0x20(%rbp)
   10407:	74 4b                	je     10454 <_ZNSt8_Rb_treeIiSt4pairIKiP9CandidateESt10_Select1stIS4_ESt4lessIiESaIS4_EE8_M_eraseEPSt13_Rb_tree_nodeIS4_E+0x62>
   10409:	48 8b 45 e0          	mov    -0x20(%rbp),%rax
   1040d:	48 89 c7             	mov    %rax,%rdi
   10410:	e8 14 18 00 00       	callq  11c29 <_ZNSt8_Rb_treeIiSt4pairIKiP9CandidateESt10_Select1stIS4_ESt4lessIiESaIS4_EE8_S_rightEPSt18_Rb_tree_node_base>
   10415:	48 89 c2             	mov    %rax,%rdx
   10418:	48 8b 45 e8          	mov    -0x18(%rbp),%rax
   1041c:	48 89 d6             	mov    %rdx,%rsi
   1041f:	48 89 c7             	mov    %rax,%rdi
   10422:	e8 cb ff ff ff       	callq  103f2 <_ZNSt8_Rb_treeIiSt4pairIKiP9CandidateESt10_Select1stIS4_ESt4lessIiESaIS4_EE8_M_eraseEPSt13_Rb_tree_nodeIS4_E>
   10427:	48 8b 45 e0          	mov    -0x20(%rbp),%rax
   1042b:	48 89 c7             	mov    %rax,%rdi
   1042e:	e8 08 18 00 00       	callq  11c3b <_ZNSt8_Rb_treeIiSt4pairIKiP9CandidateESt10_Select1stIS4_ESt4lessIiESaIS4_EE7_S_leftEPSt18_Rb_tree_node_base>
   10433:	48 89 45 f8          	mov    %rax,-0x8(%rbp)
   10437:	48 8b 55 e0          	mov    -0x20(%rbp),%rdx
   1043b:	48 8b 45 e8          	mov    -0x18(%rbp),%rax
   1043f:	48 89 d6             	mov    %rdx,%rsi
   10442:	48 89 c7             	mov    %rax,%rdi
   10445:	e8 04 18 00 00       	callq  11c4e <_ZNSt8_Rb_treeIiSt4pairIKiP9CandidateESt10_Select1stIS4_ESt4lessIiESaIS4_EE12_M_drop_nodeEPSt13_Rb_tree_nodeIS4_E>
   1044a:	48 8b 45 f8          	mov    -0x8(%rbp),%rax
   1044e:	48 89 45 e0          	mov    %rax,-0x20(%rbp)
   10452:	eb ae                	jmp    10402 <_ZNSt8_Rb_treeIiSt4pairIKiP9CandidateESt10_Select1stIS4_ESt4lessIiESaIS4_EE8_M_eraseEPSt13_Rb_tree_nodeIS4_E+0x10>
   10454:	90                   	nop
   10455:	c9                   	leaveq 
   10456:	c3                   	retq   
   10457:	90                   	nop

0000000000010458 <_ZNSt8_Rb_treeIiSt4pairIKiP9CandidateESt10_Select1stIS4_ESt4lessIiESaIS4_EE8_M_beginEv>:
   10458:	55                   	push   %rbp
   10459:	48 89 e5             	mov    %rsp,%rbp
   1045c:	48 89 7d f8          	mov    %rdi,-0x8(%rbp)
   10460:	48 8b 45 f8          	mov    -0x8(%rbp),%rax
   10464:	48 8b 40 10          	mov    0x10(%rax),%rax
   10468:	5d                   	pop    %rbp
   10469:	c3                   	retq   

000000000001046a <_ZNSt3mapIiP9CandidateSt4lessIiESaISt4pairIKiS1_EEE11lower_boundERS5_>:
   1046a:	55                   	push   %rbp
   1046b:	48 89 e5             	mov    %rsp,%rbp
   1046e:	48 83 ec 10          	sub    $0x10,%rsp
   10472:	48 89 7d f8          	mov    %rdi,-0x8(%rbp)
   10476:	48 89 75 f0          	mov    %rsi,-0x10(%rbp)
   1047a:	48 8b 45 f8          	mov    -0x8(%rbp),%rax
   1047e:	48 8b 55 f0          	mov    -0x10(%rbp),%rdx
   10482:	48 89 d6             	mov    %rdx,%rsi
   10485:	48 89 c7             	mov    %rax,%rdi
   10488:	e8 fb 17 00 00       	callq  11c88 <_ZNSt8_Rb_treeIiSt4pairIKiP9CandidateESt10_Select1stIS4_ESt4lessIiESaIS4_EE11lower_boundERS1_>
   1048d:	c9                   	leaveq 
   1048e:	c3                   	retq   
   1048f:	90                   	nop

0000000000010490 <_ZNSt3mapIiP9CandidateSt4lessIiESaISt4pairIKiS1_EEE3endEv>:
   10490:	55                   	push   %rbp
   10491:	48 89 e5             	mov    %rsp,%rbp
   10494:	48 83 ec 10          	sub    $0x10,%rsp
   10498:	48 89 7d f8          	mov    %rdi,-0x8(%rbp)
   1049c:	48 8b 45 f8          	mov    -0x8(%rbp),%rax
   104a0:	48 89 c7             	mov    %rax,%rdi
   104a3:	e8 2c 18 00 00       	callq  11cd4 <_ZNSt8_Rb_treeIiSt4pairIKiP9CandidateESt10_Select1stIS4_ESt4lessIiESaIS4_EE3endEv>
   104a8:	c9                   	leaveq 
   104a9:	c3                   	retq   

00000000000104aa <_ZNKSt17_Rb_tree_iteratorISt4pairIKiP9CandidateEEeqERKS5_>:
   104aa:	55                   	push   %rbp
   104ab:	48 89 e5             	mov    %rsp,%rbp
   104ae:	48 89 7d f8          	mov    %rdi,-0x8(%rbp)
   104b2:	48 89 75 f0          	mov    %rsi,-0x10(%rbp)
   104b6:	48 8b 45 f8          	mov    -0x8(%rbp),%rax
   104ba:	48 8b 10             	mov    (%rax),%rdx
   104bd:	48 8b 45 f0          	mov    -0x10(%rbp),%rax
   104c1:	48 8b 00             	mov    (%rax),%rax
   104c4:	48 39 c2             	cmp    %rax,%rdx
   104c7:	0f 94 c0             	sete   %al
   104ca:	5d                   	pop    %rbp
   104cb:	c3                   	retq   

00000000000104cc <_ZNKSt3mapIiP9CandidateSt4lessIiESaISt4pairIKiS1_EEE8key_compEv>:
   104cc:	55                   	push   %rbp
   104cd:	48 89 e5             	mov    %rsp,%rbp
   104d0:	53                   	push   %rbx
   104d1:	48 83 ec 18          	sub    $0x18,%rsp
   104d5:	48 89 7d e8          	mov    %rdi,-0x18(%rbp)
   104d9:	48 8b 45 e8          	mov    -0x18(%rbp),%rax
   104dd:	48 89 c7             	mov    %rax,%rdi
   104e0:	e8 3b 18 00 00       	callq  11d20 <_ZNKSt8_Rb_treeIiSt4pairIKiP9CandidateESt10_Select1stIS4_ESt4lessIiESaIS4_EE8key_compEv>
   104e5:	89 d8                	mov    %ebx,%eax
   104e7:	48 83 c4 18          	add    $0x18,%rsp
   104eb:	5b                   	pop    %rbx
   104ec:	5d                   	pop    %rbp
   104ed:	c3                   	retq   

00000000000104ee <_ZNKSt17_Rb_tree_iteratorISt4pairIKiP9CandidateEEdeEv>:
   104ee:	55                   	push   %rbp
   104ef:	48 89 e5             	mov    %rsp,%rbp
   104f2:	48 83 ec 10          	sub    $0x10,%rsp
   104f6:	48 89 7d f8          	mov    %rdi,-0x8(%rbp)
   104fa:	48 8b 45 f8          	mov    -0x8(%rbp),%rax
   104fe:	48 8b 00             	mov    (%rax),%rax
   10501:	48 89 c7             	mov    %rax,%rdi
   10504:	e8 21 18 00 00       	callq  11d2a <_ZNSt13_Rb_tree_nodeISt4pairIKiP9CandidateEE9_M_valptrEv>
   10509:	c9                   	leaveq 
   1050a:	c3                   	retq   
   1050b:	90                   	nop

000000000001050c <_ZNSt23_Rb_tree_const_iteratorISt4pairIKiP9CandidateEEC1ERKSt17_Rb_tree_iteratorIS4_E>:
   1050c:	55                   	push   %rbp
   1050d:	48 89 e5             	mov    %rsp,%rbp
   10510:	48 89 7d f8          	mov    %rdi,-0x8(%rbp)
   10514:	48 89 75 f0          	mov    %rsi,-0x10(%rbp)
   10518:	48 8b 45 f0          	mov    -0x10(%rbp),%rax
   1051c:	48 8b 10             	mov    (%rax),%rdx
   1051f:	48 8b 45 f8          	mov    -0x8(%rbp),%rax
   10523:	48 89 10             	mov    %rdx,(%rax)
   10526:	90                   	nop
   10527:	5d                   	pop    %rbp
   10528:	c3                   	retq   
   10529:	90                   	nop

000000000001052a <_ZNSt8_Rb_treeIiSt4pairIKiP9CandidateESt10_Select1stIS4_ESt4lessIiESaIS4_EE22_M_emplace_hint_uniqueIJRKSt21piecewise_construct_tSt5tupleIJRS1_EESF_IJEEEEESt17_Rb_tree_iteratorIS4_ESt23_Rb_tree_const_iteratorIS4_EDpOT_>:
   1052a:	55                   	push   %rbp
   1052b:	48 89 e5             	mov    %rsp,%rbp
   1052e:	41 54                	push   %r12
   10530:	53                   	push   %rbx
   10531:	48 83 ec 60          	sub    $0x60,%rsp
   10535:	48 89 7d b8          	mov    %rdi,-0x48(%rbp)
   10539:	48 89 75 b0          	mov    %rsi,-0x50(%rbp)
   1053d:	48 89 55 a8          	mov    %rdx,-0x58(%rbp)
   10541:	48 89 4d a0          	mov    %rcx,-0x60(%rbp)
   10545:	4c 89 45 98          	mov    %r8,-0x68(%rbp)
   10549:	64 48 8b 04 25 28 00 	mov    %fs:0x28,%rax
   10550:	00 00 
   10552:	48 89 45 e8          	mov    %rax,-0x18(%rbp)
   10556:	31 c0                	xor    %eax,%eax
   10558:	48 8b 45 98          	mov    -0x68(%rbp),%rax
   1055c:	48 89 c7             	mov    %rax,%rdi
   1055f:	e8 a1 f8 ff ff       	callq  fe05 <_ZSt7forwardISt5tupleIJEEEOT_RNSt16remove_referenceIS2_E4typeE>
   10564:	49 89 c4             	mov    %rax,%r12
   10567:	48 8b 45 a0          	mov    -0x60(%rbp),%rax
   1056b:	48 89 c7             	mov    %rax,%rdi
   1056e:	e8 84 f8 ff ff       	callq  fdf7 <_ZSt7forwardISt5tupleIJRKiEEEOT_RNSt16remove_referenceIS4_E4typeE>
   10573:	48 89 c3             	mov    %rax,%rbx
   10576:	48 8b 45 a8          	mov    -0x58(%rbp),%rax
   1057a:	48 89 c7             	mov    %rax,%rdi
   1057d:	e8 67 f8 ff ff       	callq  fde9 <_ZSt7forwardIRKSt21piecewise_construct_tEOT_RNSt16remove_referenceIS3_E4typeE>
   10582:	48 89 c6             	mov    %rax,%rsi
   10585:	48 8b 45 b8          	mov    -0x48(%rbp),%rax
   10589:	4c 89 e1             	mov    %r12,%rcx
   1058c:	48 89 da             	mov    %rbx,%rdx
   1058f:	48 89 c7             	mov    %rax,%rdi
   10592:	e8 b1 17 00 00       	callq  11d48 <_ZNSt8_Rb_treeIiSt4pairIKiP9CandidateESt10_Select1stIS4_ESt4lessIiESaIS4_EE14_M_create_nodeIJRKSt21piecewise_construct_tSt5tupleIJRS1_EESF_IJEEEEEPSt13_Rb_tree_nodeIS4_EDpOT_>
   10597:	48 89 45 c8          	mov    %rax,-0x38(%rbp)
   1059b:	48 8b 45 c8          	mov    -0x38(%rbp),%rax
   1059f:	48 89 c7             	mov    %rax,%rdi
   105a2:	e8 c2 1b 00 00       	callq  12169 <_ZNSt8_Rb_treeIiSt4pairIKiP9CandidateESt10_Select1stIS4_ESt4lessIiESaIS4_EE6_S_keyEPKSt13_Rb_tree_nodeIS4_E>
   105a7:	48 89 c2             	mov    %rax,%rdx
   105aa:	48 8b 4d b0          	mov    -0x50(%rbp),%rcx
   105ae:	48 8b 45 b8          	mov    -0x48(%rbp),%rax
   105b2:	48 89 ce             	mov    %rcx,%rsi
   105b5:	48 89 c7             	mov    %rax,%rdi
   105b8:	e8 07 18 00 00       	callq  11dc4 <_ZNSt8_Rb_treeIiSt4pairIKiP9CandidateESt10_Select1stIS4_ESt4lessIiESaIS4_EE29_M_get_insert_hint_unique_posESt23_Rb_tree_const_iteratorIS4_ERS1_>
   105bd:	48 89 45 d0          	mov    %rax,-0x30(%rbp)
   105c1:	48 89 55 d8          	mov    %rdx,-0x28(%rbp)
   105c5:	48 8b 45 d8          	mov    -0x28(%rbp),%rax
   105c9:	48 85 c0             	test   %rax,%rax
   105cc:	74 1a                	je     105e8 <_ZNSt8_Rb_treeIiSt4pairIKiP9CandidateESt10_Select1stIS4_ESt4lessIiESaIS4_EE22_M_emplace_hint_uniqueIJRKSt21piecewise_construct_tSt5tupleIJRS1_EESF_IJEEEEESt17_Rb_tree_iteratorIS4_ESt23_Rb_tree_const_iteratorIS4_EDpOT_+0xbe>
   105ce:	48 8b 55 d8          	mov    -0x28(%rbp),%rdx
   105d2:	48 8b 75 d0          	mov    -0x30(%rbp),%rsi
   105d6:	48 8b 4d c8          	mov    -0x38(%rbp),%rcx
   105da:	48 8b 45 b8          	mov    -0x48(%rbp),%rax
   105de:	48 89 c7             	mov    %rax,%rdi
   105e1:	e8 d2 1b 00 00       	callq  121b8 <_ZNSt8_Rb_treeIiSt4pairIKiP9CandidateESt10_Select1stIS4_ESt4lessIiESaIS4_EE14_M_insert_nodeEPSt18_Rb_tree_node_baseSC_PSt13_Rb_tree_nodeIS4_E>
   105e6:	eb 2a                	jmp    10612 <_ZNSt8_Rb_treeIiSt4pairIKiP9CandidateESt10_Select1stIS4_ESt4lessIiESaIS4_EE22_M_emplace_hint_uniqueIJRKSt21piecewise_construct_tSt5tupleIJRS1_EESF_IJEEEEESt17_Rb_tree_iteratorIS4_ESt23_Rb_tree_const_iteratorIS4_EDpOT_+0xe8>
   105e8:	48 8b 55 c8          	mov    -0x38(%rbp),%rdx
   105ec:	48 8b 45 b8          	mov    -0x48(%rbp),%rax
   105f0:	48 89 d6             	mov    %rdx,%rsi
   105f3:	48 89 c7             	mov    %rax,%rdi
   105f6:	e8 53 16 00 00       	callq  11c4e <_ZNSt8_Rb_treeIiSt4pairIKiP9CandidateESt10_Select1stIS4_ESt4lessIiESaIS4_EE12_M_drop_nodeEPSt13_Rb_tree_nodeIS4_E>
   105fb:	48 8b 55 d0          	mov    -0x30(%rbp),%rdx
   105ff:	48 8d 45 c0          	lea    -0x40(%rbp),%rax
   10603:	48 89 d6             	mov    %rdx,%rsi
   10606:	48 89 c7             	mov    %rax,%rdi
   10609:	e8 90 1c 00 00       	callq  1229e <_ZNSt17_Rb_tree_iteratorISt4pairIKiP9CandidateEEC1EPSt18_Rb_tree_node_base>
   1060e:	48 8b 45 c0          	mov    -0x40(%rbp),%rax
   10612:	48 8b 5d e8          	mov    -0x18(%rbp),%rbx
   10616:	64 48 33 1c 25 28 00 	xor    %fs:0x28,%rbx
   1061d:	00 00 
   1061f:	74 3a                	je     1065b <_ZNSt8_Rb_treeIiSt4pairIKiP9CandidateESt10_Select1stIS4_ESt4lessIiESaIS4_EE22_M_emplace_hint_uniqueIJRKSt21piecewise_construct_tSt5tupleIJRS1_EESF_IJEEEEESt17_Rb_tree_iteratorIS4_ESt23_Rb_tree_const_iteratorIS4_EDpOT_+0x131>
   10621:	eb 33                	jmp    10656 <_ZNSt8_Rb_treeIiSt4pairIKiP9CandidateESt10_Select1stIS4_ESt4lessIiESaIS4_EE22_M_emplace_hint_uniqueIJRKSt21piecewise_construct_tSt5tupleIJRS1_EESF_IJEEEEESt17_Rb_tree_iteratorIS4_ESt23_Rb_tree_const_iteratorIS4_EDpOT_+0x12c>
   10623:	48 89 c7             	mov    %rax,%rdi
   10626:	e8 a5 ce ff ff       	callq  d4d0 <__cxa_begin_catch@plt>
   1062b:	48 8b 55 c8          	mov    -0x38(%rbp),%rdx
   1062f:	48 8b 45 b8          	mov    -0x48(%rbp),%rax
   10633:	48 89 d6             	mov    %rdx,%rsi
   10636:	48 89 c7             	mov    %rax,%rdi
   10639:	e8 10 16 00 00       	callq  11c4e <_ZNSt8_Rb_treeIiSt4pairIKiP9CandidateESt10_Select1stIS4_ESt4lessIiESaIS4_EE12_M_drop_nodeEPSt13_Rb_tree_nodeIS4_E>
   1063e:	e8 4d d1 ff ff       	callq  d790 <__cxa_rethrow@plt>
   10643:	48 89 c3             	mov    %rax,%rbx
   10646:	e8 85 d1 ff ff       	callq  d7d0 <__cxa_end_catch@plt>
   1064b:	48 89 d8             	mov    %rbx,%rax
   1064e:	48 89 c7             	mov    %rax,%rdi
   10651:	e8 da d1 ff ff       	callq  d830 <_Unwind_Resume@plt>
   10656:	e8 85 d0 ff ff       	callq  d6e0 <__stack_chk_fail@plt>
   1065b:	48 83 c4 60          	add    $0x60,%rsp
   1065f:	5b                   	pop    %rbx
   10660:	41 5c                	pop    %r12
   10662:	5d                   	pop    %rbp
   10663:	c3                   	retq   

0000000000010664 <_ZNSt11_Tuple_implILm0EJPFvvEEE7_M_headERS2_>:
   10664:	55                   	push   %rbp
   10665:	48 89 e5             	mov    %rsp,%rbp
   10668:	48 83 ec 10          	sub    $0x10,%rsp
   1066c:	48 89 7d f8          	mov    %rdi,-0x8(%rbp)
   10670:	48 8b 45 f8          	mov    -0x8(%rbp),%rax
   10674:	48 89 c7             	mov    %rax,%rdi
   10677:	e8 02 00 00 00       	callq  1067e <_ZNSt10_Head_baseILm0EPFvvELb0EE7_M_headERS2_>
   1067c:	c9                   	leaveq 
   1067d:	c3                   	retq   

000000000001067e <_ZNSt10_Head_baseILm0EPFvvELb0EE7_M_headERS2_>:
   1067e:	55                   	push   %rbp
   1067f:	48 89 e5             	mov    %rsp,%rbp
   10682:	48 89 7d f8          	mov    %rdi,-0x8(%rbp)
   10686:	48 8b 45 f8          	mov    -0x8(%rbp),%rax
   1068a:	5d                   	pop    %rbp
   1068b:	c3                   	retq   

000000000001068c <_ZNSt11_Tuple_implILm0EJPFvvEEEC1EOS2_>:
   1068c:	55                   	push   %rbp
   1068d:	48 89 e5             	mov    %rsp,%rbp
   10690:	53                   	push   %rbx
   10691:	48 83 ec 18          	sub    $0x18,%rsp
   10695:	48 89 7d e8          	mov    %rdi,-0x18(%rbp)
   10699:	48 89 75 e0          	mov    %rsi,-0x20(%rbp)
   1069d:	48 8b 5d e8          	mov    -0x18(%rbp),%rbx
   106a1:	48 8b 45 e0          	mov    -0x20(%rbp),%rax
   106a5:	48 89 c7             	mov    %rax,%rdi
   106a8:	e8 b7 ff ff ff       	callq  10664 <_ZNSt11_Tuple_implILm0EJPFvvEEE7_M_headERS2_>
   106ad:	48 89 c7             	mov    %rax,%rdi
   106b0:	e8 6c ec ff ff       	callq  f321 <_ZSt7forwardIPFvvEEOT_RNSt16remove_referenceIS2_E4typeE>
   106b5:	48 89 c6             	mov    %rax,%rsi
   106b8:	48 89 df             	mov    %rbx,%rdi
   106bb:	e8 f8 1b 00 00       	callq  122b8 <_ZNSt10_Head_baseILm0EPFvvELb0EEC1IS1_EEOT_>
   106c0:	90                   	nop
   106c1:	48 83 c4 18          	add    $0x18,%rsp
   106c5:	5b                   	pop    %rbx
   106c6:	5d                   	pop    %rbp
   106c7:	c3                   	retq   

00000000000106c8 <_ZNSt6thread6_StateC1Ev>:
   106c8:	55                   	push   %rbp
   106c9:	48 89 e5             	mov    %rsp,%rbp
   106cc:	48 89 7d f8          	mov    %rdi,-0x8(%rbp)
   106d0:	48 8d 15 19 a4 20 00 	lea    0x20a419(%rip),%rdx        # 21aaf0 <_ZTVNSt6thread6_StateE@@GLIBCXX_3.4.22+0x10>
   106d7:	48 8b 45 f8          	mov    -0x8(%rbp),%rax
   106db:	48 89 10             	mov    %rdx,(%rax)
   106de:	90                   	nop
   106df:	5d                   	pop    %rbp
   106e0:	c3                   	retq   
   106e1:	90                   	nop

00000000000106e2 <_ZNSt6thread8_InvokerISt5tupleIJPFvvEEEEC1EOS5_>:
   106e2:	55                   	push   %rbp
   106e3:	48 89 e5             	mov    %rsp,%rbp
   106e6:	48 83 ec 10          	sub    $0x10,%rsp
   106ea:	48 89 7d f8          	mov    %rdi,-0x8(%rbp)
   106ee:	48 89 75 f0          	mov    %rsi,-0x10(%rbp)
   106f2:	48 8b 45 f8          	mov    -0x8(%rbp),%rax
   106f6:	48 8b 55 f0          	mov    -0x10(%rbp),%rdx
   106fa:	48 89 d6             	mov    %rdx,%rsi
   106fd:	48 89 c7             	mov    %rax,%rdi
   10700:	e8 9d f4 ff ff       	callq  fba2 <_ZNSt5tupleIJPFvvEEEC1EOS2_>
   10705:	90                   	nop
   10706:	c9                   	leaveq 
   10707:	c3                   	retq   

0000000000010708 <_ZNSt6thread11_State_implINS_8_InvokerISt5tupleIJPFvvEEEEEEC1EOS6_>:
   10708:	55                   	push   %rbp
   10709:	48 89 e5             	mov    %rsp,%rbp
   1070c:	53                   	push   %rbx
   1070d:	48 83 ec 18          	sub    $0x18,%rsp
   10711:	48 89 7d e8          	mov    %rdi,-0x18(%rbp)
   10715:	48 89 75 e0          	mov    %rsi,-0x20(%rbp)
   10719:	48 8b 45 e8          	mov    -0x18(%rbp),%rax
   1071d:	48 89 c7             	mov    %rax,%rdi
   10720:	e8 a3 ff ff ff       	callq  106c8 <_ZNSt6thread6_StateC1Ev>
   10725:	48 8d 15 94 a3 20 00 	lea    0x20a394(%rip),%rdx        # 21aac0 <_ZTVNSt6thread11_State_implINS_8_InvokerISt5tupleIJPFvvEEEEEEE+0x10>
   1072c:	48 8b 45 e8          	mov    -0x18(%rbp),%rax
   10730:	48 89 10             	mov    %rdx,(%rax)
   10733:	48 8b 45 e8          	mov    -0x18(%rbp),%rax
   10737:	48 8d 58 08          	lea    0x8(%rax),%rbx
   1073b:	48 8b 45 e0          	mov    -0x20(%rbp),%rax
   1073f:	48 89 c7             	mov    %rax,%rdi
   10742:	e8 03 f5 ff ff       	callq  fc4a <_ZSt7forwardINSt6thread8_InvokerISt5tupleIJPFvvEEEEEEOT_RNSt16remove_referenceIS7_E4typeE>
   10747:	48 89 c6             	mov    %rax,%rsi
   1074a:	48 89 df             	mov    %rbx,%rdi
   1074d:	e8 90 ff ff ff       	callq  106e2 <_ZNSt6thread8_InvokerISt5tupleIJPFvvEEEEC1EOS5_>
   10752:	90                   	nop
   10753:	48 83 c4 18          	add    $0x18,%rsp
   10757:	5b                   	pop    %rbx
   10758:	5d                   	pop    %rbp
   10759:	c3                   	retq   

000000000001075a <_ZNSt10unique_ptrINSt6thread6_StateESt14default_deleteIS1_EEC1IS3_vEEPS1_>:
   1075a:	55                   	push   %rbp
   1075b:	48 89 e5             	mov    %rsp,%rbp
   1075e:	48 83 ec 10          	sub    $0x10,%rsp
   10762:	48 89 7d f8          	mov    %rdi,-0x8(%rbp)
   10766:	48 89 75 f0          	mov    %rsi,-0x10(%rbp)
   1076a:	48 8b 45 f8          	mov    -0x8(%rbp),%rax
   1076e:	48 8b 55 f0          	mov    -0x10(%rbp),%rdx
   10772:	48 89 d6             	mov    %rdx,%rsi
   10775:	48 89 c7             	mov    %rax,%rdi
   10778:	e8 65 1b 00 00       	callq  122e2 <_ZNSt15__uniq_ptr_implINSt6thread6_StateESt14default_deleteIS1_EEC1EPS1_>
   1077d:	90                   	nop
   1077e:	c9                   	leaveq 
   1077f:	c3                   	retq   

0000000000010780 <_ZNSt15__uniq_ptr_implINSt6thread6_StateESt14default_deleteIS1_EE6_M_ptrEv>:
   10780:	55                   	push   %rbp
   10781:	48 89 e5             	mov    %rsp,%rbp
   10784:	48 83 ec 10          	sub    $0x10,%rsp
   10788:	48 89 7d f8          	mov    %rdi,-0x8(%rbp)
   1078c:	48 8b 45 f8          	mov    -0x8(%rbp),%rax
   10790:	48 89 c7             	mov    %rax,%rdi
   10793:	e8 7f 1b 00 00       	callq  12317 <_ZSt3getILm0EJPNSt6thread6_StateESt14default_deleteIS1_EEERNSt13tuple_elementIXT_ESt5tupleIJDpT0_EEE4typeERS9_>
   10798:	c9                   	leaveq 
   10799:	c3                   	retq   

000000000001079a <_ZNSt10unique_ptrINSt6thread6_StateESt14default_deleteIS1_EE11get_deleterEv>:
   1079a:	55                   	push   %rbp
   1079b:	48 89 e5             	mov    %rsp,%rbp
   1079e:	48 83 ec 10          	sub    $0x10,%rsp
   107a2:	48 89 7d f8          	mov    %rdi,-0x8(%rbp)
   107a6:	48 8b 45 f8          	mov    -0x8(%rbp),%rax
   107aa:	48 89 c7             	mov    %rax,%rdi
   107ad:	e8 80 1b 00 00       	callq  12332 <_ZNSt15__uniq_ptr_implINSt6thread6_StateESt14default_deleteIS1_EE10_M_deleterEv>
   107b2:	c9                   	leaveq 
   107b3:	c3                   	retq   

00000000000107b4 <_ZNKSt14default_deleteINSt6thread6_StateEEclEPS1_>:
   107b4:	55                   	push   %rbp
   107b5:	48 89 e5             	mov    %rsp,%rbp
   107b8:	48 83 ec 10          	sub    $0x10,%rsp
   107bc:	48 89 7d f8          	mov    %rdi,-0x8(%rbp)
   107c0:	48 89 75 f0          	mov    %rsi,-0x10(%rbp)
   107c4:	48 83 7d f0 00       	cmpq   $0x0,-0x10(%rbp)
   107c9:	74 17                	je     107e2 <_ZNKSt14default_deleteINSt6thread6_StateEEclEPS1_+0x2e>
   107cb:	48 8b 45 f0          	mov    -0x10(%rbp),%rax
   107cf:	48 8b 00             	mov    (%rax),%rax
   107d2:	48 83 c0 08          	add    $0x8,%rax
   107d6:	48 8b 00             	mov    (%rax),%rax
   107d9:	48 8b 55 f0          	mov    -0x10(%rbp),%rdx
   107dd:	48 89 d7             	mov    %rdx,%rdi
   107e0:	ff d0                	callq  *%rax
   107e2:	90                   	nop
   107e3:	c9                   	leaveq 
   107e4:	c3                   	retq   
   107e5:	90                   	nop

00000000000107e6 <_ZNSt8_Rb_treeIiSt4pairIKiP5StateESt10_Select1stIS4_ESt4lessIiESaIS4_EE11lower_boundERS1_>:
   107e6:	55                   	push   %rbp
   107e7:	48 89 e5             	mov    %rsp,%rbp
   107ea:	53                   	push   %rbx
   107eb:	48 83 ec 18          	sub    $0x18,%rsp
   107ef:	48 89 7d e8          	mov    %rdi,-0x18(%rbp)
   107f3:	48 89 75 e0          	mov    %rsi,-0x20(%rbp)
   107f7:	48 8b 45 e8          	mov    -0x18(%rbp),%rax
   107fb:	48 89 c7             	mov    %rax,%rdi
   107fe:	e8 5b 1b 00 00       	callq  1235e <_ZNSt8_Rb_treeIiSt4pairIKiP5StateESt10_Select1stIS4_ESt4lessIiESaIS4_EE6_M_endEv>
   10803:	48 89 c3             	mov    %rax,%rbx
   10806:	48 8b 45 e8          	mov    -0x18(%rbp),%rax
   1080a:	48 89 c7             	mov    %rax,%rdi
   1080d:	e8 3a 1b 00 00       	callq  1234c <_ZNSt8_Rb_treeIiSt4pairIKiP5StateESt10_Select1stIS4_ESt4lessIiESaIS4_EE8_M_beginEv>
   10812:	48 89 c6             	mov    %rax,%rsi
   10815:	48 8b 55 e0          	mov    -0x20(%rbp),%rdx
   10819:	48 8b 45 e8          	mov    -0x18(%rbp),%rax
   1081d:	48 89 d1             	mov    %rdx,%rcx
   10820:	48 89 da             	mov    %rbx,%rdx
   10823:	48 89 c7             	mov    %rax,%rdi
   10826:	e8 45 1b 00 00       	callq  12370 <_ZNSt8_Rb_treeIiSt4pairIKiP5StateESt10_Select1stIS4_ESt4lessIiESaIS4_EE14_M_lower_boundEPSt13_Rb_tree_nodeIS4_EPSt18_Rb_tree_node_baseRS1_>
   1082b:	48 83 c4 18          	add    $0x18,%rsp
   1082f:	5b                   	pop    %rbx
   10830:	5d                   	pop    %rbp
   10831:	c3                   	retq   

0000000000010832 <_ZNSt8_Rb_treeIiSt4pairIKiP5StateESt10_Select1stIS4_ESt4lessIiESaIS4_EE3endEv>:
   10832:	55                   	push   %rbp
   10833:	48 89 e5             	mov    %rsp,%rbp
   10836:	48 83 ec 20          	sub    $0x20,%rsp
   1083a:	48 89 7d e8          	mov    %rdi,-0x18(%rbp)
   1083e:	64 48 8b 04 25 28 00 	mov    %fs:0x28,%rax
   10845:	00 00 
   10847:	48 89 45 f8          	mov    %rax,-0x8(%rbp)
   1084b:	31 c0                	xor    %eax,%eax
   1084d:	48 8b 45 e8          	mov    -0x18(%rbp),%rax
   10851:	48 8d 50 08          	lea    0x8(%rax),%rdx
   10855:	48 8d 45 f0          	lea    -0x10(%rbp),%rax
   10859:	48 89 d6             	mov    %rdx,%rsi
   1085c:	48 89 c7             	mov    %rax,%rdi
   1085f:	e8 9c 06 00 00       	callq  10f00 <_ZNSt17_Rb_tree_iteratorISt4pairIKiP5StateEEC1EPSt18_Rb_tree_node_base>
   10864:	48 8b 45 f0          	mov    -0x10(%rbp),%rax
   10868:	48 8b 4d f8          	mov    -0x8(%rbp),%rcx
   1086c:	64 48 33 0c 25 28 00 	xor    %fs:0x28,%rcx
   10873:	00 00 
   10875:	74 05                	je     1087c <_ZNSt8_Rb_treeIiSt4pairIKiP5StateESt10_Select1stIS4_ESt4lessIiESaIS4_EE3endEv+0x4a>
   10877:	e8 64 ce ff ff       	callq  d6e0 <__stack_chk_fail@plt>
   1087c:	c9                   	leaveq 
   1087d:	c3                   	retq   

000000000001087e <_ZNKSt8_Rb_treeIiSt4pairIKiP5StateESt10_Select1stIS4_ESt4lessIiESaIS4_EE8key_compEv>:
   1087e:	55                   	push   %rbp
   1087f:	48 89 e5             	mov    %rsp,%rbp
   10882:	48 89 7d f8          	mov    %rdi,-0x8(%rbp)
   10886:	5d                   	pop    %rbp
   10887:	c3                   	retq   

0000000000010888 <_ZNSt13_Rb_tree_nodeISt4pairIKiP5StateEE9_M_valptrEv>:
   10888:	55                   	push   %rbp
   10889:	48 89 e5             	mov    %rsp,%rbp
   1088c:	48 83 ec 10          	sub    $0x10,%rsp
   10890:	48 89 7d f8          	mov    %rdi,-0x8(%rbp)
   10894:	48 8b 45 f8          	mov    -0x8(%rbp),%rax
   10898:	48 83 c0 20          	add    $0x20,%rax
   1089c:	48 89 c7             	mov    %rax,%rdi
   1089f:	e8 86 1b 00 00       	callq  1242a <_ZN9__gnu_cxx16__aligned_membufISt4pairIKiP5StateEE6_M_ptrEv>
   108a4:	c9                   	leaveq 
   108a5:	c3                   	retq   

00000000000108a6 <_ZNSt8_Rb_treeIiSt4pairIKiP5StateESt10_Select1stIS4_ESt4lessIiESaIS4_EE14_M_create_nodeIJRKSt21piecewise_construct_tSt5tupleIJRS1_EESF_IJEEEEEPSt13_Rb_tree_nodeIS4_EDpOT_>:
   108a6:	55                   	push   %rbp
   108a7:	48 89 e5             	mov    %rsp,%rbp
   108aa:	41 54                	push   %r12
   108ac:	53                   	push   %rbx
   108ad:	48 83 ec 30          	sub    $0x30,%rsp
   108b1:	48 89 7d d8          	mov    %rdi,-0x28(%rbp)
   108b5:	48 89 75 d0          	mov    %rsi,-0x30(%rbp)
   108b9:	48 89 55 c8          	mov    %rdx,-0x38(%rbp)
   108bd:	48 89 4d c0          	mov    %rcx,-0x40(%rbp)
   108c1:	48 8b 45 d8          	mov    -0x28(%rbp),%rax
   108c5:	48 89 c7             	mov    %rax,%rdi
   108c8:	e8 77 1b 00 00       	callq  12444 <_ZNSt8_Rb_treeIiSt4pairIKiP5StateESt10_Select1stIS4_ESt4lessIiESaIS4_EE11_M_get_nodeEv>
   108cd:	48 89 45 e8          	mov    %rax,-0x18(%rbp)
   108d1:	48 8b 45 c0          	mov    -0x40(%rbp),%rax
   108d5:	48 89 c7             	mov    %rax,%rdi
   108d8:	e8 28 f5 ff ff       	callq  fe05 <_ZSt7forwardISt5tupleIJEEEOT_RNSt16remove_referenceIS2_E4typeE>
   108dd:	49 89 c4             	mov    %rax,%r12
   108e0:	48 8b 45 c8          	mov    -0x38(%rbp),%rax
   108e4:	48 89 c7             	mov    %rax,%rdi
   108e7:	e8 0b f5 ff ff       	callq  fdf7 <_ZSt7forwardISt5tupleIJRKiEEEOT_RNSt16remove_referenceIS4_E4typeE>
   108ec:	48 89 c3             	mov    %rax,%rbx
   108ef:	48 8b 45 d0          	mov    -0x30(%rbp),%rax
   108f3:	48 89 c7             	mov    %rax,%rdi
   108f6:	e8 ee f4 ff ff       	callq  fde9 <_ZSt7forwardIRKSt21piecewise_construct_tEOT_RNSt16remove_referenceIS3_E4typeE>
   108fb:	48 89 c2             	mov    %rax,%rdx
   108fe:	48 8b 75 e8          	mov    -0x18(%rbp),%rsi
   10902:	48 8b 45 d8          	mov    -0x28(%rbp),%rax
   10906:	4d 89 e0             	mov    %r12,%r8
   10909:	48 89 d9             	mov    %rbx,%rcx
   1090c:	48 89 c7             	mov    %rax,%rdi
   1090f:	e8 58 1b 00 00       	callq  1246c <_ZNSt8_Rb_treeIiSt4pairIKiP5StateESt10_Select1stIS4_ESt4lessIiESaIS4_EE17_M_construct_nodeIJRKSt21piecewise_construct_tSt5tupleIJRS1_EESF_IJEEEEEvPSt13_Rb_tree_nodeIS4_EDpOT_>
   10914:	48 8b 45 e8          	mov    -0x18(%rbp),%rax
   10918:	48 83 c4 30          	add    $0x30,%rsp
   1091c:	5b                   	pop    %rbx
   1091d:	41 5c                	pop    %r12
   1091f:	5d                   	pop    %rbp
   10920:	c3                   	retq   
   10921:	90                   	nop

0000000000010922 <_ZNSt4pairIPSt18_Rb_tree_node_baseS1_EC1IRS1_Lb1EEERKS1_OT_>:
   10922:	55                   	push   %rbp
   10923:	48 89 e5             	mov    %rsp,%rbp
   10926:	48 83 ec 20          	sub    $0x20,%rsp
   1092a:	48 89 7d f8          	mov    %rdi,-0x8(%rbp)
   1092e:	48 89 75 f0          	mov    %rsi,-0x10(%rbp)
   10932:	48 89 55 e8          	mov    %rdx,-0x18(%rbp)
   10936:	48 8b 45 f0          	mov    -0x10(%rbp),%rax
   1093a:	48 8b 10             	mov    (%rax),%rdx
   1093d:	48 8b 45 f8          	mov    -0x8(%rbp),%rax
   10941:	48 89 10             	mov    %rdx,(%rax)
   10944:	48 8b 45 e8          	mov    -0x18(%rbp),%rax
   10948:	48 89 c7             	mov    %rax,%rdi
   1094b:	e8 0e 00 00 00       	callq  1095e <_ZSt7forwardIRPSt18_Rb_tree_node_baseEOT_RNSt16remove_referenceIS3_E4typeE>
   10950:	48 8b 10             	mov    (%rax),%rdx
   10953:	48 8b 45 f8          	mov    -0x8(%rbp),%rax
   10957:	48 89 50 08          	mov    %rdx,0x8(%rax)
   1095b:	90                   	nop
   1095c:	c9                   	leaveq 
   1095d:	c3                   	retq   

000000000001095e <_ZSt7forwardIRPSt18_Rb_tree_node_baseEOT_RNSt16remove_referenceIS3_E4typeE>:
   1095e:	55                   	push   %rbp
   1095f:	48 89 e5             	mov    %rsp,%rbp
   10962:	48 89 7d f8          	mov    %rdi,-0x8(%rbp)
   10966:	48 8b 45 f8          	mov    -0x8(%rbp),%rax
   1096a:	5d                   	pop    %rbp
   1096b:	c3                   	retq   

000000000001096c <_ZNSt4pairIPSt18_Rb_tree_node_baseS1_EC1IRS1_S4_Lb1EEEOT_OT0_>:
   1096c:	55                   	push   %rbp
   1096d:	48 89 e5             	mov    %rsp,%rbp
   10970:	48 83 ec 20          	sub    $0x20,%rsp
   10974:	48 89 7d f8          	mov    %rdi,-0x8(%rbp)
   10978:	48 89 75 f0          	mov    %rsi,-0x10(%rbp)
   1097c:	48 89 55 e8          	mov    %rdx,-0x18(%rbp)
   10980:	48 8b 45 f0          	mov    -0x10(%rbp),%rax
   10984:	48 89 c7             	mov    %rax,%rdi
   10987:	e8 d2 ff ff ff       	callq  1095e <_ZSt7forwardIRPSt18_Rb_tree_node_baseEOT_RNSt16remove_referenceIS3_E4typeE>
   1098c:	48 8b 10             	mov    (%rax),%rdx
   1098f:	48 8b 45 f8          	mov    -0x8(%rbp),%rax
   10993:	48 89 10             	mov    %rdx,(%rax)
   10996:	48 8b 45 e8          	mov    -0x18(%rbp),%rax
   1099a:	48 89 c7             	mov    %rax,%rdi
   1099d:	e8 bc ff ff ff       	callq  1095e <_ZSt7forwardIRPSt18_Rb_tree_node_baseEOT_RNSt16remove_referenceIS3_E4typeE>
   109a2:	48 8b 10             	mov    (%rax),%rdx
   109a5:	48 8b 45 f8          	mov    -0x8(%rbp),%rax
   109a9:	48 89 50 08          	mov    %rdx,0x8(%rax)
   109ad:	90                   	nop
   109ae:	c9                   	leaveq 
   109af:	c3                   	retq   

00000000000109b0 <_ZNSt4pairIPSt18_Rb_tree_node_baseS1_EC1IRS1_Lb1EEEOT_RKS1_>:
   109b0:	55                   	push   %rbp
   109b1:	48 89 e5             	mov    %rsp,%rbp
   109b4:	48 83 ec 20          	sub    $0x20,%rsp
   109b8:	48 89 7d f8          	mov    %rdi,-0x8(%rbp)
   109bc:	48 89 75 f0          	mov    %rsi,-0x10(%rbp)
   109c0:	48 89 55 e8          	mov    %rdx,-0x18(%rbp)
   109c4:	48 8b 45 f0          	mov    -0x10(%rbp),%rax
   109c8:	48 89 c7             	mov    %rax,%rdi
   109cb:	e8 8e ff ff ff       	callq  1095e <_ZSt7forwardIRPSt18_Rb_tree_node_baseEOT_RNSt16remove_referenceIS3_E4typeE>
   109d0:	48 8b 10             	mov    (%rax),%rdx
   109d3:	48 8b 45 f8          	mov    -0x8(%rbp),%rax
   109d7:	48 89 10             	mov    %rdx,(%rax)
   109da:	48 8b 45 e8          	mov    -0x18(%rbp),%rax
   109de:	48 8b 10             	mov    (%rax),%rdx
   109e1:	48 8b 45 f8          	mov    -0x8(%rbp),%rax
   109e5:	48 89 50 08          	mov    %rdx,0x8(%rax)
   109e9:	90                   	nop
   109ea:	c9                   	leaveq 
   109eb:	c3                   	retq   

00000000000109ec <_ZNSt8_Rb_treeIiSt4pairIKiP5StateESt10_Select1stIS4_ESt4lessIiESaIS4_EE29_M_get_insert_hint_unique_posESt23_Rb_tree_const_iteratorIS4_ERS1_>:
   109ec:	55                   	push   %rbp
   109ed:	48 89 e5             	mov    %rsp,%rbp
   109f0:	53                   	push   %rbx
   109f1:	48 83 ec 68          	sub    $0x68,%rsp
   109f5:	48 89 7d a8          	mov    %rdi,-0x58(%rbp)
   109f9:	48 89 75 a0          	mov    %rsi,-0x60(%rbp)
   109fd:	48 89 55 98          	mov    %rdx,-0x68(%rbp)
   10a01:	64 48 8b 04 25 28 00 	mov    %fs:0x28,%rax
   10a08:	00 00 
   10a0a:	48 89 45 e8          	mov    %rax,-0x18(%rbp)
   10a0e:	31 c0                	xor    %eax,%eax
   10a10:	48 8d 45 a0          	lea    -0x60(%rbp),%rax
   10a14:	48 89 c7             	mov    %rax,%rdi
   10a17:	e8 26 1b 00 00       	callq  12542 <_ZNKSt23_Rb_tree_const_iteratorISt4pairIKiP5StateEE13_M_const_castEv>
   10a1c:	48 89 45 b8          	mov    %rax,-0x48(%rbp)
   10a20:	48 8b 5d b8          	mov    -0x48(%rbp),%rbx
   10a24:	48 8b 45 a8          	mov    -0x58(%rbp),%rax
   10a28:	48 89 c7             	mov    %rax,%rdi
   10a2b:	e8 2e 19 00 00       	callq  1235e <_ZNSt8_Rb_treeIiSt4pairIKiP5StateESt10_Select1stIS4_ESt4lessIiESaIS4_EE6_M_endEv>
   10a30:	48 39 c3             	cmp    %rax,%rbx
   10a33:	0f 94 c0             	sete   %al
   10a36:	84 c0                	test   %al,%al
   10a38:	0f 84 a4 00 00 00    	je     10ae2 <_ZNSt8_Rb_treeIiSt4pairIKiP5StateESt10_Select1stIS4_ESt4lessIiESaIS4_EE29_M_get_insert_hint_unique_posESt23_Rb_tree_const_iteratorIS4_ERS1_+0xf6>
   10a3e:	48 8b 45 a8          	mov    -0x58(%rbp),%rax
   10a42:	48 89 c7             	mov    %rax,%rdi
   10a45:	e8 44 1b 00 00       	callq  1258e <_ZNKSt8_Rb_treeIiSt4pairIKiP5StateESt10_Select1stIS4_ESt4lessIiESaIS4_EE4sizeEv>
   10a4a:	48 85 c0             	test   %rax,%rax
   10a4d:	74 3b                	je     10a8a <_ZNSt8_Rb_treeIiSt4pairIKiP5StateESt10_Select1stIS4_ESt4lessIiESaIS4_EE29_M_get_insert_hint_unique_posESt23_Rb_tree_const_iteratorIS4_ERS1_+0x9e>
   10a4f:	48 8b 5d a8          	mov    -0x58(%rbp),%rbx
   10a53:	48 8b 45 a8          	mov    -0x58(%rbp),%rax
   10a57:	48 89 c7             	mov    %rax,%rdi
   10a5a:	e8 41 1b 00 00       	callq  125a0 <_ZNSt8_Rb_treeIiSt4pairIKiP5StateESt10_Select1stIS4_ESt4lessIiESaIS4_EE12_M_rightmostEv>
   10a5f:	48 8b 00             	mov    (%rax),%rax
   10a62:	48 89 c7             	mov    %rax,%rdi
   10a65:	e8 48 1b 00 00       	callq  125b2 <_ZNSt8_Rb_treeIiSt4pairIKiP5StateESt10_Select1stIS4_ESt4lessIiESaIS4_EE6_S_keyEPKSt18_Rb_tree_node_base>
   10a6a:	48 89 c1             	mov    %rax,%rcx
   10a6d:	48 8b 45 98          	mov    -0x68(%rbp),%rax
   10a71:	48 89 c2             	mov    %rax,%rdx
   10a74:	48 89 ce             	mov    %rcx,%rsi
   10a77:	48 89 df             	mov    %rbx,%rdi
   10a7a:	e8 29 f3 ff ff       	callq  fda8 <_ZNKSt4lessIiEclERKiS2_>
   10a7f:	84 c0                	test   %al,%al
   10a81:	74 07                	je     10a8a <_ZNSt8_Rb_treeIiSt4pairIKiP5StateESt10_Select1stIS4_ESt4lessIiESaIS4_EE29_M_get_insert_hint_unique_posESt23_Rb_tree_const_iteratorIS4_ERS1_+0x9e>
   10a83:	b8 01 00 00 00       	mov    $0x1,%eax
   10a88:	eb 05                	jmp    10a8f <_ZNSt8_Rb_treeIiSt4pairIKiP5StateESt10_Select1stIS4_ESt4lessIiESaIS4_EE29_M_get_insert_hint_unique_posESt23_Rb_tree_const_iteratorIS4_ERS1_+0xa3>
   10a8a:	b8 00 00 00 00       	mov    $0x0,%eax
   10a8f:	84 c0                	test   %al,%al
   10a91:	74 37                	je     10aca <_ZNSt8_Rb_treeIiSt4pairIKiP5StateESt10_Select1stIS4_ESt4lessIiESaIS4_EE29_M_get_insert_hint_unique_posESt23_Rb_tree_const_iteratorIS4_ERS1_+0xde>
   10a93:	48 8b 45 a8          	mov    -0x58(%rbp),%rax
   10a97:	48 89 c7             	mov    %rax,%rdi
   10a9a:	e8 01 1b 00 00       	callq  125a0 <_ZNSt8_Rb_treeIiSt4pairIKiP5StateESt10_Select1stIS4_ESt4lessIiESaIS4_EE12_M_rightmostEv>
   10a9f:	48 89 c2             	mov    %rax,%rdx
   10aa2:	48 c7 45 c8 00 00 00 	movq   $0x0,-0x38(%rbp)
   10aa9:	00 
   10aaa:	48 8d 4d c8          	lea    -0x38(%rbp),%rcx
   10aae:	48 8d 45 d0          	lea    -0x30(%rbp),%rax
   10ab2:	48 89 ce             	mov    %rcx,%rsi
   10ab5:	48 89 c7             	mov    %rax,%rdi
   10ab8:	e8 65 fe ff ff       	callq  10922 <_ZNSt4pairIPSt18_Rb_tree_node_baseS1_EC1IRS1_Lb1EEERKS1_OT_>
   10abd:	48 8b 45 d0          	mov    -0x30(%rbp),%rax
   10ac1:	48 8b 55 d8          	mov    -0x28(%rbp),%rdx
   10ac5:	e9 ac 02 00 00       	jmpq   10d76 <_ZNSt8_Rb_treeIiSt4pairIKiP5StateESt10_Select1stIS4_ESt4lessIiESaIS4_EE29_M_get_insert_hint_unique_posESt23_Rb_tree_const_iteratorIS4_ERS1_+0x38a>
   10aca:	48 8b 55 98          	mov    -0x68(%rbp),%rdx
   10ace:	48 8b 45 a8          	mov    -0x58(%rbp),%rax
   10ad2:	48 89 d6             	mov    %rdx,%rsi
   10ad5:	48 89 c7             	mov    %rax,%rdi
   10ad8:	e8 77 1b 00 00       	callq  12654 <_ZNSt8_Rb_treeIiSt4pairIKiP5StateESt10_Select1stIS4_ESt4lessIiESaIS4_EE24_M_get_insert_unique_posERS1_>
